

Microchip Technology PIC LITE Macro Assembler V1.45 build -152302408 
                                                                                               Fri Dec 14 11:31:55 2018

Microchip Technology Omniscient Code Generator v1.45 (Free mode) build 201711160504
     1                           	processor	16F1526
     2                           	opt	pw 120
     3                           	opt	lm
     4                           	psect	idataBANK0,global,class=CODE,delta=2
     5                           	psect	idataBANK1,global,class=CODE,delta=2
     6                           	psect	idataBANK2,global,class=CODE,delta=2
     7                           	psect	stringtext1,global,class=STRCODE,delta=2
     8                           	psect	stringtext2,global,class=STRCODE,delta=2
     9                           	psect	stringtext3,global,class=STRCODE,delta=2
    10                           	psect	stringtext4,global,class=STRCODE,delta=2
    11                           	psect	stringtext5,global,class=STRCODE,delta=2
    12                           	psect	stringtext6,global,class=STRCODE,delta=2
    13                           	psect	stringtext7,global,class=STRCODE,delta=2
    14                           	psect	stringtext8,global,class=STRCODE,delta=2
    15                           	psect	stringtext9,global,class=STRCODE,delta=2
    16                           	psect	stringtext10,global,class=STRCODE,delta=2
    17                           	psect	stringtext11,global,class=STRCODE,delta=2
    18                           	psect	stringtext12,global,class=STRCODE,delta=2
    19                           	psect	stringtext13,global,class=STRCODE,delta=2
    20                           	psect	stringtext14,global,class=STRCODE,delta=2
    21                           	psect	stringtext15,global,class=STRCODE,delta=2
    22                           	psect	stringtext16,global,class=STRCODE,delta=2
    23                           	psect	cinit,global,class=CODE,merge=1,delta=2
    24                           	psect	bssCOMMON,global,class=COMMON,space=1,delta=1
    25                           	psect	bssBANK0,global,class=BANK0,space=1,delta=1
    26                           	psect	dataBANK0,global,class=BANK0,space=1,delta=1
    27                           	psect	bssBANK1,global,class=BANK1,space=1,delta=1
    28                           	psect	dataBANK1,global,class=BANK1,space=1,delta=1
    29                           	psect	bssBANK2,global,class=BANK2,space=1,delta=1
    30                           	psect	dataBANK2,global,class=BANK2,space=1,delta=1
    31                           	psect	inittext,global,class=CODE,delta=2
    32                           	psect	clrtext,global,class=CODE,delta=2
    33                           	psect	cstackBANK1,global,class=BANK1,space=1,delta=1
    34                           	psect	cstackCOMMON,global,class=COMMON,space=1,delta=1
    35                           	psect	cstackBANK0,global,class=BANK0,space=1,delta=1
    36                           	psect	maintext,global,class=CODE,merge=1,split=1,delta=2
    37                           	psect	text1,local,class=CODE,merge=1,delta=2
    38                           	psect	text2,local,class=CODE,merge=1,delta=2
    39                           	psect	text3,local,class=CODE,merge=1,delta=2,group=1
    40                           	psect	text4,local,class=CODE,merge=1,delta=2,group=1
    41                           	psect	text5,local,class=CODE,merge=1,delta=2
    42                           	psect	text6,local,class=CODE,merge=1,delta=2,group=1
    43                           	psect	text7,local,class=CODE,merge=1,delta=2,group=1
    44                           	psect	text8,local,class=CODE,merge=1,delta=2,group=1
    45                           	psect	text9,local,class=CODE,merge=1,delta=2
    46                           	psect	text10,local,class=CODE,merge=1,delta=2
    47                           	psect	text11,local,class=CODE,merge=1,delta=2
    48                           	psect	text12,local,class=CODE,merge=1,delta=2
    49                           	psect	text13,local,class=CODE,merge=1,delta=2
    50                           	psect	intentry,global,class=CODE,delta=2
    51                           	psect	text15,local,class=CODE,merge=1,delta=2
    52                           	dabs	1,0x7E,2
    53  0000                     
    54                           ; Version 1.45
    55                           ; Generated 16/11/2017 GMT
    56                           ; 
    57                           ; Copyright © 2017, Microchip Technology Inc. and its subsidiaries ("Microchip")
    58                           ; All rights reserved.
    59                           ; 
    60                           ; This software is developed by Microchip Technology Inc. and its subsidiaries ("Microch
      +                          ip").
    61                           ; 
    62                           ; Redistribution and use in source and binary forms, with or without modification, are
    63                           ; permitted provided that the following conditions are met:
    64                           ; 
    65                           ;     1. Redistributions of source code must retain the above copyright notice, this lis
      +                          t of
    66                           ;        conditions and the following disclaimer.
    67                           ; 
    68                           ;     2. Redistributions in binary form must reproduce the above copyright notice, this 
      +                          list
    69                           ;        of conditions and the following disclaimer in the documentation and/or other
    70                           ;        materials provided with the distribution.
    71                           ; 
    72                           ;     3. Microchip's name may not be used to endorse or promote products derived from th
      +                          is
    73                           ;        software without specific prior written permission.
    74                           ; 
    75                           ; THIS SOFTWARE IS PROVIDED BY MICROCHIP "AS IS" AND ANY EXPRESS OR IMPLIED WARRANTIES,
    76                           ; INCLUDING, BUT NOT LIMITED TO, THE IMPLIED WARRANTIES OF MERCHANTABILITY AND FITNESS F
      +                          OR
    77                           ; PURPOSE ARE DISCLAIMED.  IN NO EVENT SHALL MICROCHIP BE LIABLE FOR ANY DIRECT, INDIREC
      +                          T,
    78                           ; INCIDENTAL, SPECIAL, EXEMPLARY, OR CONSEQUENTIAL DAMAGES (INCLUDING BUT NOT LIMITED TO
    79                           ; PROCUREMENT OF SUBSTITUTE GOODS OR SERVICES; LOSS OF USE, DATA OR PROFITS; OR BUSINESS
    80                           ; INTERRUPTION) HOWSOEVER CAUSED AND ON ANY THEORY OF LIABILITY, WHETHER IN CONTRACT, ST
      +                          RICT
    81                           ; LIABILITY, OR TORT (INCLUDING NEGLIGENCE OR OTHERWISE) ARISING IN ANY WAY OUT OF THE U
      +                          SE OF
    82                           ; THIS SOFTWARE, EVEN IF ADVISED OF THE POSSIBILITY OF SUCH DAMAGE.
    83                           ; 
    84                           ; 
    85                           ; Code-generator required, PIC16F1526 Definitions
    86                           ; 
    87                           ; SFR Addresses
    88  0000                     	;# 
    89  0001                     	;# 
    90  0002                     	;# 
    91  0003                     	;# 
    92  0004                     	;# 
    93  0005                     	;# 
    94  0006                     	;# 
    95  0007                     	;# 
    96  0008                     	;# 
    97  0009                     	;# 
    98  000A                     	;# 
    99  000B                     	;# 
   100  000C                     	;# 
   101  000D                     	;# 
   102  000E                     	;# 
   103  000F                     	;# 
   104  0010                     	;# 
   105  0011                     	;# 
   106  0012                     	;# 
   107  0013                     	;# 
   108  0014                     	;# 
   109  0015                     	;# 
   110  0016                     	;# 
   111  0016                     	;# 
   112  0017                     	;# 
   113  0018                     	;# 
   114  0019                     	;# 
   115  001A                     	;# 
   116  001B                     	;# 
   117  001C                     	;# 
   118  008C                     	;# 
   119  008D                     	;# 
   120  008E                     	;# 
   121  008F                     	;# 
   122  0090                     	;# 
   123  0091                     	;# 
   124  0092                     	;# 
   125  0093                     	;# 
   126  0094                     	;# 
   127  0095                     	;# 
   128  0096                     	;# 
   129  0097                     	;# 
   130  0099                     	;# 
   131  009A                     	;# 
   132  009B                     	;# 
   133  009B                     	;# 
   134  009C                     	;# 
   135  009D                     	;# 
   136  009E                     	;# 
   137  010C                     	;# 
   138  010D                     	;# 
   139  010E                     	;# 
   140  010F                     	;# 
   141  0110                     	;# 
   142  0116                     	;# 
   143  0117                     	;# 
   144  011D                     	;# 
   145  018C                     	;# 
   146  018D                     	;# 
   147  018F                     	;# 
   148  0190                     	;# 
   149  0191                     	;# 
   150  0191                     	;# 
   151  0192                     	;# 
   152  0193                     	;# 
   153  0193                     	;# 
   154  0194                     	;# 
   155  0195                     	;# 
   156  0196                     	;# 
   157  0197                     	;# 
   158  0199                     	;# 
   159  0199                     	;# 
   160  0199                     	;# 
   161  019A                     	;# 
   162  019A                     	;# 
   163  019A                     	;# 
   164  019B                     	;# 
   165  019B                     	;# 
   166  019B                     	;# 
   167  019B                     	;# 
   168  019B                     	;# 
   169  019C                     	;# 
   170  019C                     	;# 
   171  019C                     	;# 
   172  019D                     	;# 
   173  019D                     	;# 
   174  019D                     	;# 
   175  019E                     	;# 
   176  019E                     	;# 
   177  019E                     	;# 
   178  019F                     	;# 
   179  019F                     	;# 
   180  019F                     	;# 
   181  020D                     	;# 
   182  020F                     	;# 
   183  0210                     	;# 
   184  0211                     	;# 
   185  0211                     	;# 
   186  0212                     	;# 
   187  0212                     	;# 
   188  0213                     	;# 
   189  0213                     	;# 
   190  0214                     	;# 
   191  0214                     	;# 
   192  0215                     	;# 
   193  0215                     	;# 
   194  0215                     	;# 
   195  0216                     	;# 
   196  0216                     	;# 
   197  0217                     	;# 
   198  0217                     	;# 
   199  0219                     	;# 
   200  021A                     	;# 
   201  021B                     	;# 
   202  021C                     	;# 
   203  021D                     	;# 
   204  021E                     	;# 
   205  021F                     	;# 
   206  028C                     	;# 
   207  028D                     	;# 
   208  0291                     	;# 
   209  0291                     	;# 
   210  0292                     	;# 
   211  0293                     	;# 
   212  0298                     	;# 
   213  0298                     	;# 
   214  0299                     	;# 
   215  029A                     	;# 
   216  029D                     	;# 
   217  029E                     	;# 
   218  029F                     	;# 
   219  030C                     	;# 
   220  030D                     	;# 
   221  0311                     	;# 
   222  0311                     	;# 
   223  0312                     	;# 
   224  0313                     	;# 
   225  0318                     	;# 
   226  0318                     	;# 
   227  0319                     	;# 
   228  031A                     	;# 
   229  031C                     	;# 
   230  031C                     	;# 
   231  031D                     	;# 
   232  031E                     	;# 
   233  038C                     	;# 
   234  038D                     	;# 
   235  0394                     	;# 
   236  0395                     	;# 
   237  0396                     	;# 
   238  040C                     	;# 
   239  040D                     	;# 
   240  0411                     	;# 
   241  0411                     	;# 
   242  0412                     	;# 
   243  0413                     	;# 
   244  0414                     	;# 
   245  0415                     	;# 
   246  0416                     	;# 
   247  0417                     	;# 
   248  0418                     	;# 
   249  0418                     	;# 
   250  0419                     	;# 
   251  041A                     	;# 
   252  041B                     	;# 
   253  041C                     	;# 
   254  041D                     	;# 
   255  041E                     	;# 
   256  048D                     	;# 
   257  0491                     	;# 
   258  0491                     	;# 
   259  0492                     	;# 
   260  0492                     	;# 
   261  0493                     	;# 
   262  0493                     	;# 
   263  0493                     	;# 
   264  0494                     	;# 
   265  0494                     	;# 
   266  0495                     	;# 
   267  0495                     	;# 
   268  0496                     	;# 
   269  0496                     	;# 
   270  0497                     	;# 
   271  0497                     	;# 
   272  0595                     	;# 
   273  0596                     	;# 
   274  0597                     	;# 
   275  059C                     	;# 
   276  059D                     	;# 
   277  059E                     	;# 
   278  0611                     	;# 
   279  0611                     	;# 
   280  0612                     	;# 
   281  0613                     	;# 
   282  0614                     	;# 
   283  0614                     	;# 
   284  0615                     	;# 
   285  0616                     	;# 
   286  0617                     	;# 
   287  0617                     	;# 
   288  0618                     	;# 
   289  0619                     	;# 
   290  061A                     	;# 
   291  061A                     	;# 
   292  061B                     	;# 
   293  061C                     	;# 
   294  061D                     	;# 
   295  061D                     	;# 
   296  061E                     	;# 
   297  061F                     	;# 
   298  0FE4                     	;# 
   299  0FE5                     	;# 
   300  0FE6                     	;# 
   301  0FE7                     	;# 
   302  0FE8                     	;# 
   303  0FE9                     	;# 
   304  0FEA                     	;# 
   305  0FEB                     	;# 
   306  0FED                     	;# 
   307  0FEE                     	;# 
   308  0FEF                     	;# 
   309                           
   310                           	psect	idataBANK0
   311  0FC3                     __pidataBANK0:	
   312                           
   313                           ;initializer for _levelofDimmer_LSB
   314  0FC3  3430               	retlw	48
   315                           
   316                           ;initializer for _levelofDimmer_MSB
   317  0FC4  3430               	retlw	48
   318                           
   319                           ;initializer for _SwitchNumberBuffer
   320  0FC5  3423               	retlw	35
   321  0FC6  3400               	retlw	0
   322                           
   323                           ;initializer for _FinalFramebitBuffer
   324  0FC7  3423               	retlw	35
   325                           
   326                           ;initializer for _ChildLockBuffer
   327  0FC8  3423               	retlw	35
   328                           
   329                           ;initializer for _SwitchStatusBuffer
   330  0FC9  3423               	retlw	35
   331                           
   332                           	psect	idataBANK1
   333  0608                     __pidataBANK1:	
   334                           
   335                           ;initializer for _copymainReceivedDataBuffer
   336  0608  3423               	retlw	35
   337  0609  3400               	retlw	0
   338  060A  3400               	retlw	0
   339  060B  3400               	retlw	0
   340  060C  3400               	retlw	0
   341  060D  3400               	retlw	0
   342  060E  3400               	retlw	0
   343  060F  3400               	retlw	0
   344  0610  3400               	retlw	0
   345  0611  3400               	retlw	0
   346  0612  3400               	retlw	0
   347  0613  3400               	retlw	0
   348  0614  3400               	retlw	0
   349  0615  3400               	retlw	0
   350  0616  3400               	retlw	0
   351  0617  3400               	retlw	0
   352  0618  3400               	retlw	0
   353  0619  3400               	retlw	0
   354                           
   355                           ;initializer for _tempReceivedDataBuffer
   356  061A  3423               	retlw	35
   357  061B  3400               	retlw	0
   358  061C  3400               	retlw	0
   359  061D  3400               	retlw	0
   360  061E  3400               	retlw	0
   361  061F  3400               	retlw	0
   362  0620  3400               	retlw	0
   363  0621  3400               	retlw	0
   364  0622  3400               	retlw	0
   365  0623  3400               	retlw	0
   366                           
   367                           ;initializer for _AcknowledgementBuffer
   368  0624  3423               	retlw	35
   369  0625  3400               	retlw	0
   370  0626  3400               	retlw	0
   371  0627  3400               	retlw	0
   372  0628  3400               	retlw	0
   373  0629  3400               	retlw	0
   374                           
   375                           ;initializer for _copyparentalLockBuffer
   376  062A  3430               	retlw	48
   377  062B  3430               	retlw	48
   378  062C  3430               	retlw	48
   379  062D  3430               	retlw	48
   380  062E  3400               	retlw	0
   381                           
   382                           ;initializer for _parentalLockBuffer
   383  062F  3430               	retlw	48
   384  0630  3430               	retlw	48
   385  0631  3430               	retlw	48
   386  0632  3430               	retlw	48
   387  0633  3400               	retlw	0
   388                           
   389                           ;initializer for _ErrorNames
   390  0634  3423               	retlw	35
   391  0635  3423               	retlw	35
   392  0636  3423               	retlw	35
   393  0637  3423               	retlw	35
   394  0638  3400               	retlw	0
   395                           
   396                           ;initializer for _BlueColorIntensityBuffer
   397  0639  3423               	retlw	35
   398  063A  3400               	retlw	0
   399  063B  3400               	retlw	0
   400                           
   401                           ;initializer for _GreenColorIntensityBuffer
   402  063C  3423               	retlw	35
   403  063D  3400               	retlw	0
   404  063E  3400               	retlw	0
   405                           
   406                           ;initializer for _RedColorIntensityBuffer
   407  063F  3423               	retlw	35
   408  0640  3400               	retlw	0
   409  0641  3400               	retlw	0
   410                           
   411                           ;initializer for _ModuleNameBuffer
   412  0642  3423               	retlw	35
   413  0643  3400               	retlw	0
   414  0644  3400               	retlw	0
   415                           
   416                           	psect	idataBANK2
   417  0FD9                     __pidataBANK2:	
   418                           
   419                           ;initializer for _mainReceivedDataBuffer
   420  0FD9  3423               	retlw	35
   421  0FDA  3400               	retlw	0
   422  0FDB  3400               	retlw	0
   423  0FDC  3400               	retlw	0
   424  0FDD  3400               	retlw	0
   425  0FDE  3400               	retlw	0
   426  0FDF  3400               	retlw	0
   427  0FE0  3400               	retlw	0
   428  0FE1  3400               	retlw	0
   429  0FE2  3400               	retlw	0
   430  0FE3  3400               	retlw	0
   431  0FE4  3400               	retlw	0
   432  0FE5  3400               	retlw	0
   433  0FE6  3400               	retlw	0
   434  0FE7  3400               	retlw	0
   435  0FE8  3400               	retlw	0
   436  0FE9  3400               	retlw	0
   437  0FEA  3400               	retlw	0
   438  000C                     _PORTAbits	set	12
   439  005E                     _PEIE	set	94
   440  005F                     _GIE	set	95
   441  008D                     _RC1IF	set	141
   442  0091                     _PIE1bits	set	145
   443  008E                     _TRISCbits	set	142
   444  008C                     _TRISAbits	set	140
   445  018C                     _ANSELA	set	396
   446  018D                     _ANSELB	set	397
   447  018F                     _ANSELD	set	399
   448  0190                     _ANSELE	set	400
   449  019E                     _TX1STAbits	set	414
   450  019C                     _SP1BRGH	set	412
   451  019B                     _SP1BRGL	set	411
   452  019E                     _TX1STA	set	414
   453  019D                     _RC1STA	set	413
   454  019F                     _BAUD1CON	set	415
   455  0199                     _RC1REG	set	409
   456  019D                     _RC1STAbits	set	413
   457  019A                     _TX1REG	set	410
   458  020D                     _WPUB	set	525
   459  020F                     _WPUD	set	527
   460  0210                     _WPUE	set	528
   461  028C                     _PORTFbits	set	652
   462  030C                     _TRISFbits	set	780
   463  040C                     _ANSELF	set	1036
   464  040D                     _ANSELG	set	1037
   465  048D                     _WPUG	set	1165
   466                           
   467                           	psect	stringtext1
   468  06C3                     __pstringtext1:	
   469  06C3                     STR_18:	
   470  06C3  3453               	retlw	83	;'S'
   471  06C4  3457               	retlw	87	;'W'
   472  06C5  342E               	retlw	46	;'.'
   473  06C6  3430               	retlw	48	;'0'
   474  06C7  3431               	retlw	49	;'1'
   475  06C8  342E               	retlw	46	;'.'
   476  06C9  3441               	retlw	65	;'A'
   477  06CA  3443               	retlw	67	;'C'
   478  06CB  3454               	retlw	84	;'T'
   479  06CC  3441               	retlw	65	;'A'
   480  06CD  3443               	retlw	67	;'C'
   481  06CE  344B               	retlw	75	;'K'
   482  06CF  342E               	retlw	46	;'.'
   483  06D0  3430               	retlw	48	;'0'
   484  06D1  342E               	retlw	46	;'.'
   485  06D2  3430               	retlw	48	;'0'
   486  06D3  342E               	retlw	46	;'.'
   487  06D4  3430               	retlw	48	;'0'
   488  06D5  342E               	retlw	46	;'.'
   489  06D6  3430               	retlw	48	;'0'
   490  06D7  342E               	retlw	46	;'.'
   491  06D8  3430               	retlw	48	;'0'
   492  06D9  342E               	retlw	46	;'.'
   493  06DA  3431               	retlw	49	;'1'
   494  06DB  342E               	retlw	46	;'.'
   495  06DC  347C               	retlw	124	;'|'
   496  06DD  3400               	retlw	0
   497                           
   498                           	psect	stringtext2
   499  06DE                     __pstringtext2:	
   500  06DE                     STR_21:	
   501  06DE  3453               	retlw	83	;'S'
   502  06DF  3457               	retlw	87	;'W'
   503  06E0  342E               	retlw	46	;'.'
   504  06E1  3430               	retlw	48	;'0'
   505  06E2  3432               	retlw	50	;'2'
   506  06E3  342E               	retlw	46	;'.'
   507  06E4  3441               	retlw	65	;'A'
   508  06E5  3443               	retlw	67	;'C'
   509  06E6  3454               	retlw	84	;'T'
   510  06E7  3441               	retlw	65	;'A'
   511  06E8  3443               	retlw	67	;'C'
   512  06E9  344B               	retlw	75	;'K'
   513  06EA  342E               	retlw	46	;'.'
   514  06EB  3430               	retlw	48	;'0'
   515  06EC  342E               	retlw	46	;'.'
   516  06ED  3430               	retlw	48	;'0'
   517  06EE  342E               	retlw	46	;'.'
   518  06EF  3430               	retlw	48	;'0'
   519  06F0  342E               	retlw	46	;'.'
   520  06F1  3430               	retlw	48	;'0'
   521  06F2  342E               	retlw	46	;'.'
   522  06F3  3430               	retlw	48	;'0'
   523  06F4  342E               	retlw	46	;'.'
   524  06F5  3431               	retlw	49	;'1'
   525  06F6  342E               	retlw	46	;'.'
   526  06F7  347C               	retlw	124	;'|'
   527  06F8  3400               	retlw	0
   528                           
   529                           	psect	stringtext3
   530  06F9                     __pstringtext3:	
   531  06F9                     STR_22:	
   532  06F9  3453               	retlw	83	;'S'
   533  06FA  3457               	retlw	87	;'W'
   534  06FB  342E               	retlw	46	;'.'
   535  06FC  3430               	retlw	48	;'0'
   536  06FD  3433               	retlw	51	;'3'
   537  06FE  342E               	retlw	46	;'.'
   538  06FF  3441               	retlw	65	;'A'
   539  0700  3443               	retlw	67	;'C'
   540  0701  3454               	retlw	84	;'T'
   541  0702  3441               	retlw	65	;'A'
   542  0703  3443               	retlw	67	;'C'
   543  0704  344B               	retlw	75	;'K'
   544  0705  342E               	retlw	46	;'.'
   545  0706  3430               	retlw	48	;'0'
   546  0707  342E               	retlw	46	;'.'
   547  0708  3430               	retlw	48	;'0'
   548  0709  342E               	retlw	46	;'.'
   549  070A  3430               	retlw	48	;'0'
   550  070B  342E               	retlw	46	;'.'
   551  070C  3430               	retlw	48	;'0'
   552  070D  342E               	retlw	46	;'.'
   553  070E  3430               	retlw	48	;'0'
   554  070F  342E               	retlw	46	;'.'
   555  0710  3431               	retlw	49	;'1'
   556  0711  342E               	retlw	46	;'.'
   557  0712  347C               	retlw	124	;'|'
   558  0713  3400               	retlw	0
   559                           
   560                           	psect	stringtext4
   561  0714                     __pstringtext4:	
   562  0714                     STR_24:	
   563  0714  3453               	retlw	83	;'S'
   564  0715  3457               	retlw	87	;'W'
   565  0716  342E               	retlw	46	;'.'
   566  0717  3430               	retlw	48	;'0'
   567  0718  3434               	retlw	52	;'4'
   568  0719  342E               	retlw	46	;'.'
   569  071A  3441               	retlw	65	;'A'
   570  071B  3443               	retlw	67	;'C'
   571  071C  3454               	retlw	84	;'T'
   572  071D  3441               	retlw	65	;'A'
   573  071E  3443               	retlw	67	;'C'
   574  071F  344B               	retlw	75	;'K'
   575  0720  342E               	retlw	46	;'.'
   576  0721  3430               	retlw	48	;'0'
   577  0722  342E               	retlw	46	;'.'
   578  0723  3430               	retlw	48	;'0'
   579  0724  342E               	retlw	46	;'.'
   580  0725  3430               	retlw	48	;'0'
   581  0726  342E               	retlw	46	;'.'
   582  0727  3430               	retlw	48	;'0'
   583  0728  342E               	retlw	46	;'.'
   584  0729  3430               	retlw	48	;'0'
   585  072A  342E               	retlw	46	;'.'
   586  072B  3431               	retlw	49	;'1'
   587  072C  342E               	retlw	46	;'.'
   588  072D  347C               	retlw	124	;'|'
   589  072E  3400               	retlw	0
   590                           
   591                           	psect	stringtext5
   592  072F                     __pstringtext5:	
   593  072F                     STR_19:	
   594  072F  3453               	retlw	83	;'S'
   595  0730  3457               	retlw	87	;'W'
   596  0731  342E               	retlw	46	;'.'
   597  0732  3430               	retlw	48	;'0'
   598  0733  3431               	retlw	49	;'1'
   599  0734  342E               	retlw	46	;'.'
   600  0735  3441               	retlw	65	;'A'
   601  0736  3443               	retlw	67	;'C'
   602  0737  3454               	retlw	84	;'T'
   603  0738  3441               	retlw	65	;'A'
   604  0739  3443               	retlw	67	;'C'
   605  073A  344B               	retlw	75	;'K'
   606  073B  342E               	retlw	46	;'.'
   607  073C  3431               	retlw	49	;'1'
   608  073D  342E               	retlw	46	;'.'
   609  073E  3430               	retlw	48	;'0'
   610  073F  342E               	retlw	46	;'.'
   611  0740  3430               	retlw	48	;'0'
   612  0741  342E               	retlw	46	;'.'
   613  0742  3430               	retlw	48	;'0'
   614  0743  342E               	retlw	46	;'.'
   615  0744  3430               	retlw	48	;'0'
   616  0745  342E               	retlw	46	;'.'
   617  0746  3431               	retlw	49	;'1'
   618  0747  342E               	retlw	46	;'.'
   619  0748  347C               	retlw	124	;'|'
   620  0749  3400               	retlw	0
   621                           
   622                           	psect	stringtext6
   623  074A                     __pstringtext6:	
   624  074A                     STR_23:	
   625  074A  3453               	retlw	83	;'S'
   626  074B  3457               	retlw	87	;'W'
   627  074C  342E               	retlw	46	;'.'
   628  074D  3430               	retlw	48	;'0'
   629  074E  3433               	retlw	51	;'3'
   630  074F  342E               	retlw	46	;'.'
   631  0750  3441               	retlw	65	;'A'
   632  0751  3443               	retlw	67	;'C'
   633  0752  3454               	retlw	84	;'T'
   634  0753  3441               	retlw	65	;'A'
   635  0754  3443               	retlw	67	;'C'
   636  0755  344B               	retlw	75	;'K'
   637  0756  342E               	retlw	46	;'.'
   638  0757  3431               	retlw	49	;'1'
   639  0758  342E               	retlw	46	;'.'
   640  0759  3430               	retlw	48	;'0'
   641  075A  342E               	retlw	46	;'.'
   642  075B  3430               	retlw	48	;'0'
   643  075C  342E               	retlw	46	;'.'
   644  075D  3430               	retlw	48	;'0'
   645  075E  342E               	retlw	46	;'.'
   646  075F  3430               	retlw	48	;'0'
   647  0760  342E               	retlw	46	;'.'
   648  0761  3431               	retlw	49	;'1'
   649  0762  342E               	retlw	46	;'.'
   650  0763  347C               	retlw	124	;'|'
   651  0764  3400               	retlw	0
   652                           
   653                           	psect	stringtext7
   654  0765                     __pstringtext7:	
   655  0765                     STR_25:	
   656  0765  3453               	retlw	83	;'S'
   657  0766  3457               	retlw	87	;'W'
   658  0767  342E               	retlw	46	;'.'
   659  0768  3430               	retlw	48	;'0'
   660  0769  3434               	retlw	52	;'4'
   661  076A  342E               	retlw	46	;'.'
   662  076B  3441               	retlw	65	;'A'
   663  076C  3443               	retlw	67	;'C'
   664  076D  3454               	retlw	84	;'T'
   665  076E  3441               	retlw	65	;'A'
   666  076F  3443               	retlw	67	;'C'
   667  0770  344B               	retlw	75	;'K'
   668  0771  342E               	retlw	46	;'.'
   669  0772  3431               	retlw	49	;'1'
   670  0773  342E               	retlw	46	;'.'
   671  0774  3430               	retlw	48	;'0'
   672  0775  342E               	retlw	46	;'.'
   673  0776  3430               	retlw	48	;'0'
   674  0777  342E               	retlw	46	;'.'
   675  0778  3430               	retlw	48	;'0'
   676  0779  342E               	retlw	46	;'.'
   677  077A  3430               	retlw	48	;'0'
   678  077B  342E               	retlw	46	;'.'
   679  077C  3431               	retlw	49	;'1'
   680  077D  342E               	retlw	46	;'.'
   681  077E  347C               	retlw	124	;'|'
   682  077F  3400               	retlw	0
   683                           
   684                           	psect	stringtext8
   685  0780                     __pstringtext8:	
   686  0780                     STR_20:	
   687  0780  3453               	retlw	83	;'S'
   688  0781  3457               	retlw	87	;'W'
   689  0782  342E               	retlw	46	;'.'
   690  0783  3430               	retlw	48	;'0'
   691  0784  3431               	retlw	49	;'1'
   692  0785  342E               	retlw	46	;'.'
   693  0786  3441               	retlw	65	;'A'
   694  0787  3443               	retlw	67	;'C'
   695  0788  3454               	retlw	84	;'T'
   696  0789  3441               	retlw	65	;'A'
   697  078A  3443               	retlw	67	;'C'
   698  078B  344B               	retlw	75	;'K'
   699  078C  342E               	retlw	46	;'.'
   700  078D  3432               	retlw	50	;'2'
   701  078E  342E               	retlw	46	;'.'
   702  078F  3430               	retlw	48	;'0'
   703  0790  342E               	retlw	46	;'.'
   704  0791  3430               	retlw	48	;'0'
   705  0792  342E               	retlw	46	;'.'
   706  0793  3430               	retlw	48	;'0'
   707  0794  342E               	retlw	46	;'.'
   708  0795  3430               	retlw	48	;'0'
   709  0796  342E               	retlw	46	;'.'
   710  0797  3431               	retlw	49	;'1'
   711  0798  342E               	retlw	46	;'.'
   712  0799  347C               	retlw	124	;'|'
   713  079A  3400               	retlw	0
   714                           
   715                           	psect	stringtext9
   716  1000                     __pstringtext9:	
   717  1000                     STR_4:	
   718  1000  3441               	retlw	65	;'A'
   719  1001  3443               	retlw	67	;'C'
   720  1002  3454               	retlw	84	;'T'
   721  1003  3441               	retlw	65	;'A'
   722  1004  3443               	retlw	67	;'C'
   723  1005  344B               	retlw	75	;'K'
   724  1006  3400               	retlw	0
   725                           
   726                           	psect	stringtext10
   727  1007                     __pstringtext10:	
   728  1007                     STR_17:	
   729  1007  3446               	retlw	70	;'F'
   730  1008  3452               	retlw	82	;'R'
   731  1009  344C               	retlw	76	;'L'
   732  100A  3453               	retlw	83	;'S'
   733  100B  3400               	retlw	0
   734                           
   735                           	psect	stringtext11
   736  100C                     __pstringtext11:	
   737  100C                     STR_1:	
   738  100C  3441               	retlw	65	;'A'
   739  100D  3450               	retlw	80	;'P'
   740  100E  3450               	retlw	80	;'P'
   741  100F  3400               	retlw	0
   742                           
   743                           	psect	stringtext12
   744  1010                     __pstringtext12:	
   745  1010                     STR_15:	
   746  1010  3449               	retlw	73	;'I'
   747  1011  3453               	retlw	83	;'S'
   748  1012  3452               	retlw	82	;'R'
   749  1013  3400               	retlw	0
   750                           
   751                           	psect	stringtext13
   752  1014                     __pstringtext13:	
   753  1014                     STR_13:	
   754  1014  3453               	retlw	83	;'S'
   755  1015  3454               	retlw	84	;'T'
   756  1016  3453               	retlw	83	;'S'
   757  1017  3400               	retlw	0
   758                           
   759                           	psect	stringtext14
   760  1018                     __pstringtext14:	
   761  1018                     STR_14:	
   762  1018  344F               	retlw	79	;'O'
   763  1019  344B               	retlw	75	;'K'
   764  101A  3400               	retlw	0
   765                           
   766                           	psect	stringtext15
   767  101B                     __pstringtext15:	
   768  101B                     STR_2:	
   769  101B  342E               	retlw	46	;'.'
   770  101C  3400               	retlw	0
   771                           
   772                           	psect	stringtext16
   773  0000                     __pstringtext16:	
   774  101B                     
   775                           ; #config settings
   776  0000                     
   777                           	psect	cinit
   778  0091                     start_initialization:	
   779  0091                     __initialization:	
   780                           
   781                           ; Initialize objects allocated to BANK0
   782  0091  30C3               	movlw	low __pidataBANK0
   783  0092  0084               	movwf	4
   784  0093  308F               	movlw	(high __pidataBANK0)| (0+128)
   785  0094  0085               	movwf	5
   786  0095  3067               	movlw	low __pdataBANK0
   787  0096  0086               	movwf	6
   788  0097  3000               	movlw	high __pdataBANK0
   789  0098  0087               	movwf	7
   790  0099  3007               	movlw	7
   791  009A  3187  27FA  3180   	fcall	init_ram
   792                           
   793                           ; Initialize objects allocated to BANK1
   794  009D  3008               	movlw	low __pidataBANK1
   795  009E  0084               	movwf	4
   796  009F  3086               	movlw	(high __pidataBANK1)| (0+128)
   797  00A0  0085               	movwf	5
   798  00A1  30A0               	movlw	low __pdataBANK1
   799  00A2  0086               	movwf	6
   800  00A3  3000               	movlw	high __pdataBANK1
   801  00A4  0087               	movwf	7
   802  00A5  303D               	movlw	61
   803  00A6  3187  27FA  3180   	fcall	init_ram
   804                           
   805                           ; Initialize objects allocated to BANK2
   806  00A9  30D9               	movlw	low __pidataBANK2
   807  00AA  0084               	movwf	4
   808  00AB  308F               	movlw	(high __pidataBANK2)| (0+128)
   809  00AC  0085               	movwf	5
   810  00AD  304E               	movlw	low __pdataBANK2
   811  00AE  0086               	movwf	6
   812  00AF  3001               	movlw	high __pdataBANK2
   813  00B0  0087               	movwf	7
   814  00B1  3012               	movlw	18
   815  00B2  3187  27FA  3180   	fcall	init_ram
   816                           
   817                           ; Clear objects allocated to COMMON
   818  00B5  01F0               	clrf	__pbssCOMMON& (0+127)
   819  00B6  01F1               	clrf	(__pbssCOMMON+1)& (0+127)
   820  00B7  01F2               	clrf	(__pbssCOMMON+2)& (0+127)
   821  00B8  01F3               	clrf	(__pbssCOMMON+3)& (0+127)
   822  00B9  01F4               	clrf	(__pbssCOMMON+4)& (0+127)
   823  00BA  01F5               	clrf	(__pbssCOMMON+5)& (0+127)
   824                           
   825                           ; Clear objects allocated to BANK0
   826  00BB  3052               	movlw	low __pbssBANK0
   827  00BC  0084               	movwf	4
   828  00BD  3000               	movlw	high __pbssBANK0
   829  00BE  0085               	movwf	5
   830  00BF  3015               	movlw	21
   831  00C0  318F  27B6  3180   	fcall	clear_ram0
   832                           
   833                           ; Clear objects allocated to BANK1
   834  00C3  0021               	movlb	1	; select bank1
   835  00C4  01DD               	clrf	__pbssBANK1& (0+127)
   836  00C5  01DE               	clrf	(__pbssBANK1+1)& (0+127)
   837  00C6  01DF               	clrf	(__pbssBANK1+2)& (0+127)
   838  00C7  01E0               	clrf	(__pbssBANK1+3)& (0+127)
   839                           
   840                           ; Clear objects allocated to BANK2
   841  00C8  3020               	movlw	low __pbssBANK2
   842  00C9  0084               	movwf	4
   843  00CA  3001               	movlw	high __pbssBANK2
   844  00CB  0085               	movwf	5
   845  00CC  302E               	movlw	46
   846  00CD  318F  27B6         	fcall	clear_ram0
   847  00CF                     end_of_initialization:	
   848                           ;End of C runtime variable initialization code
   849                           
   850  00CF                     __end_of__initialization:	
   851  00CF  107E               	bcf	int$flags,0	;clear compiler interrupt flag (level 1)
   852  00D0  0020               	movlb	0
   853  00D1  3183  2BC1         	ljmp	_main	;jump to C main() function
   854                           
   855                           	psect	bssCOMMON
   856  0070                     __pbssCOMMON:	
   857  0070                     _mainReceivedDataPosition:	
   858  0070                     	ds	2
   859  0072                     _StoreModuleName:	
   860  0072                     	ds	1
   861  0073                     _token:	
   862  0073                     	ds	1
   863  0074                     _ModuleName:	
   864  0074                     	ds	1
   865  0075                     _ConvertmaindataReceiveIntoString:	
   866  0075                     	ds	1
   867                           
   868                           	psect	bssBANK0
   869  0052                     __pbssBANK0:	
   870  0052                     _mainDataReceived:	
   871  0052                     	ds	2
   872  0054                     _M5:	
   873  0054                     	ds	2
   874  0056                     _M4:	
   875  0056                     	ds	2
   876  0058                     _M3:	
   877  0058                     	ds	2
   878  005A                     _M2:	
   879  005A                     	ds	2
   880  005C                     _M1:	
   881  005C                     	ds	2
   882  005E                     _FinalframebitString:	
   883  005E                     	ds	1
   884  005F                     _ChildLockString:	
   885  005F                     	ds	1
   886  0060                     _BlueColorIntensityString:	
   887  0060                     	ds	1
   888  0061                     _GreenColorIntensityString:	
   889  0061                     	ds	1
   890  0062                     _RedColorIntensityString:	
   891  0062                     	ds	1
   892  0063                     _SwitchStatusString:	
   893  0063                     	ds	1
   894  0064                     _AcknowledgementString:	
   895  0064                     	ds	1
   896  0065                     _SwitchNumberString:	
   897  0065                     	ds	1
   898  0066                     _ModuleNameString:	
   899  0066                     	ds	1
   900                           
   901                           	psect	dataBANK0
   902  0067                     __pdataBANK0:	
   903  0067                     _levelofDimmer_LSB:	
   904  0067                     	ds	1
   905  0068                     _levelofDimmer_MSB:	
   906  0068                     	ds	1
   907  0069                     _SwitchNumberBuffer:	
   908  0069                     	ds	2
   909  006B                     _FinalFramebitBuffer:	
   910  006B                     	ds	1
   911  006C                     _ChildLockBuffer:	
   912  006C                     	ds	1
   913  006D                     _SwitchStatusBuffer:	
   914  006D                     	ds	1
   915                           
   916                           	psect	bssBANK1
   917  00DD                     __pbssBANK1:	
   918  00DD                     _start_PWM_Generation_in_ISR_FLAG:	
   919  00DD                     	ds	2
   920  00DF                     _partCounter:	
   921  00DF                     	ds	2
   922                           
   923                           	psect	dataBANK1
   924  00A0                     __pdataBANK1:	
   925  00A0                     _copymainReceivedDataBuffer:	
   926  00A0                     	ds	18
   927  00B2                     _tempReceivedDataBuffer:	
   928  00B2                     	ds	10
   929  00BC                     _AcknowledgementBuffer:	
   930  00BC                     	ds	6
   931  00C2                     _copyparentalLockBuffer:	
   932  00C2                     	ds	5
   933  00C7                     _parentalLockBuffer:	
   934  00C7                     	ds	5
   935  00CC                     _ErrorNames:	
   936  00CC                     	ds	5
   937  00D1                     _BlueColorIntensityBuffer:	
   938  00D1                     	ds	3
   939  00D4                     _GreenColorIntensityBuffer:	
   940  00D4                     	ds	3
   941  00D7                     _RedColorIntensityBuffer:	
   942  00D7                     	ds	3
   943  00DA                     _ModuleNameBuffer:	
   944  00DA                     	ds	3
   945                           
   946                           	psect	bssBANK2
   947  0120                     __pbssBANK2:	
   948  0120                     _sendFinalBufferToGAteway:	
   949  0120                     	ds	46
   950                           
   951                           	psect	dataBANK2
   952  014E                     __pdataBANK2:	
   953  014E                     _mainReceivedDataBuffer:	
   954  014E                     	ds	18
   955                           
   956                           	psect	inittext
   957  07FA                     init_ram:	
   958  07FA  00FE               	movwf	126
   959  07FB                     initloop:	
   960  07FB  0012               	moviw fsr0++
   961  07FC  001E               	movwi fsr1++
   962  07FD  0BFE               	decfsz	126,f
   963  07FE  2FFB               	goto	initloop
   964  07FF  3400               	retlw	0
   965                           
   966                           	psect	clrtext
   967  0FB6                     clear_ram0:	
   968                           ;	Called with FSR0 containing the base address, and
   969                           ;	WREG with the size to clear
   970                           
   971  0FB6  0064               	clrwdt	;clear the watchdog before getting into this loop
   972  0FB7                     clrloop0:	
   973  0FB7  0180               	clrf	0	;clear RAM location pointed to by FSR
   974  0FB8  3101               	addfsr 0,1
   975  0FB9  0B89               	decfsz	9,f	;Have we reached the end of clearing yet?
   976  0FBA  2FB7               	goto	clrloop0	;have we reached the end yet?
   977  0FBB  3400               	retlw	0	;all done for this memory range, return
   978                           
   979                           	psect	cstackBANK1
   980  00E1                     __pcstackBANK1:	
   981  00E1                     main@dataBufferCounter:	
   982                           
   983                           ; 2 bytes @ 0x0
   984  00E1                     	ds	2
   985  00E3                     main@man:	
   986                           
   987                           ; 2 bytes @ 0x2
   988  00E3                     	ds	2
   989                           
   990                           	psect	cstackCOMMON
   991  0076                     __pcstackCOMMON:	
   992  0076                     ?_isdigit:	
   993  0076                     ?_errorsISR:	
   994                           ; 1 bit 
   995                           
   996  0076                     ?_GPIO_pin_Initialize:	
   997                           ; 1 bytes @ 0x0
   998                           
   999  0076                     ?_allPeripheralInit:	
  1000                           ; 1 bytes @ 0x0
  1001                           
  1002  0076                     ?_clearAllPorts:	
  1003                           ; 1 bytes @ 0x0
  1004                           
  1005  0076                     ?_pinINIT_extra:	
  1006                           ; 1 bytes @ 0x0
  1007                           
  1008  0076                     ?_EUSART_Initialize:	
  1009                           ; 1 bytes @ 0x0
  1010                           
  1011  0076                     ?_isr:	
  1012                           ; 1 bytes @ 0x0
  1013                           
  1014  0076                     ?_main:	
  1015                           ; 1 bytes @ 0x0
  1016                           
  1017  0076                     errorsISR@errNum:	
  1018                           ; 2 bytes @ 0x0
  1019                           
  1020                           
  1021                           ; 2 bytes @ 0x0
  1022  0076                     	ds	2
  1023  0078                     ??_errorsISR:	
  1024  0078                     errorsISR@Tx_count:	
  1025                           ; 1 bytes @ 0x2
  1026                           
  1027                           
  1028                           ; 2 bytes @ 0x2
  1029  0078                     	ds	2
  1030  007A                     ??_isr:	
  1031                           
  1032                           ; 1 bytes @ 0x4
  1033  007A                     	ds	2
  1034                           
  1035                           	psect	cstackBANK0
  1036  0020                     __pcstackBANK0:	
  1037  0020                     ?_sendAcknowledgment:	
  1038  0020                     ?_strcpy:	
  1039                           ; 1 bytes @ 0x0
  1040                           
  1041  0020                     ?_strcat:	
  1042                           ; 1 bytes @ 0x0
  1043                           
  1044  0020                     ??_GPIO_pin_Initialize:	
  1045                           ; 1 bytes @ 0x0
  1046                           
  1047  0020                     ??_allPeripheralInit:	
  1048                           ; 1 bytes @ 0x0
  1049                           
  1050  0020                     ?_errorsMain:	
  1051                           ; 1 bytes @ 0x0
  1052                           
  1053  0020                     ??_clearAllPorts:	
  1054                           ; 1 bytes @ 0x0
  1055                           
  1056  0020                     ??_pinINIT_extra:	
  1057                           ; 1 bytes @ 0x0
  1058                           
  1059  0020                     ??_EUSART_Initialize:	
  1060                           ; 1 bytes @ 0x0
  1061                           
  1062  0020                     ??_isdigit:	
  1063                           ; 1 bytes @ 0x0
  1064                           
  1065  0020                     ?___wmul:	
  1066                           ; 1 bytes @ 0x0
  1067                           
  1068  0020                     _isdigit$591:	
  1069                           ; 2 bytes @ 0x0
  1070                           
  1071  0020                     strcpy@from:	
  1072                           ; 1 bytes @ 0x0
  1073                           
  1074  0020                     errorsMain@errNum:	
  1075                           ; 1 bytes @ 0x0
  1076                           
  1077  0020                     sendAcknowledgment@currentStateBuffer:	
  1078                           ; 2 bytes @ 0x0
  1079                           
  1080  0020                     ___wmul@multiplier:	
  1081                           ; 2 bytes @ 0x0
  1082                           
  1083  0020                     strcat@from:	
  1084                           ; 2 bytes @ 0x0
  1085                           
  1086                           
  1087                           ; 2 bytes @ 0x0
  1088  0020                     	ds	1
  1089  0021                     ??_strcpy:	
  1090  0021                     isdigit@c:	
  1091                           ; 1 bytes @ 0x1
  1092                           
  1093                           
  1094                           ; 1 bytes @ 0x1
  1095  0021                     	ds	1
  1096  0022                     ??_sendAcknowledgment:	
  1097  0022                     ??_strcat:	
  1098                           ; 1 bytes @ 0x2
  1099                           
  1100  0022                     ??_errorsMain:	
  1101                           ; 1 bytes @ 0x2
  1102                           
  1103  0022                     strcpy@to:	
  1104                           ; 1 bytes @ 0x2
  1105                           
  1106  0022                     errorsMain@Tx_count:	
  1107                           ; 1 bytes @ 0x2
  1108                           
  1109  0022                     sendAcknowledgment@Tx_count:	
  1110                           ; 2 bytes @ 0x2
  1111                           
  1112  0022                     ___wmul@multiplicand:	
  1113                           ; 2 bytes @ 0x2
  1114                           
  1115                           
  1116                           ; 2 bytes @ 0x2
  1117  0022                     	ds	1
  1118  0023                     strcat@cp:	
  1119  0023                     strcpy@cp:	
  1120                           ; 1 bytes @ 0x3
  1121                           
  1122                           
  1123                           ; 1 bytes @ 0x3
  1124  0023                     	ds	1
  1125  0024                     ??___wmul:	
  1126  0024                     strcat@to:	
  1127                           ; 1 bytes @ 0x4
  1128                           
  1129  0024                     ___wmul@product:	
  1130                           ; 1 bytes @ 0x4
  1131                           
  1132                           
  1133                           ; 2 bytes @ 0x4
  1134  0024                     	ds	2
  1135  0026                     ?_atoi:	
  1136                           
  1137                           ; 2 bytes @ 0x6
  1138  0026                     	ds	2
  1139  0028                     ??_atoi:	
  1140                           
  1141                           ; 1 bytes @ 0x8
  1142  0028                     	ds	2
  1143  002A                     atoi@sign:	
  1144                           
  1145                           ; 1 bytes @ 0xA
  1146  002A                     	ds	1
  1147  002B                     atoi@a:	
  1148                           
  1149                           ; 2 bytes @ 0xB
  1150  002B                     	ds	2
  1151  002D                     atoi@s:	
  1152                           
  1153                           ; 1 bytes @ 0xD
  1154  002D                     	ds	1
  1155  002E                     ?_applicationControl:	
  1156  002E                     applicationControl@SwitchNumberString:	
  1157                           ; 1 bytes @ 0xE
  1158                           
  1159                           
  1160                           ; 1 bytes @ 0xE
  1161  002E                     	ds	1
  1162  002F                     applicationControl@AcknowledgementString:	
  1163                           
  1164                           ; 1 bytes @ 0xF
  1165  002F                     	ds	1
  1166  0030                     applicationControl@SwitchStatusString:	
  1167                           
  1168                           ; 1 bytes @ 0x10
  1169  0030                     	ds	1
  1170  0031                     applicationControl@RedColorIntensityString:	
  1171                           
  1172                           ; 1 bytes @ 0x11
  1173  0031                     	ds	1
  1174  0032                     applicationControl@GreenColorIntensityString:	
  1175                           
  1176                           ; 1 bytes @ 0x12
  1177  0032                     	ds	1
  1178  0033                     applicationControl@BlueColorIntensityString:	
  1179                           
  1180                           ; 1 bytes @ 0x13
  1181  0033                     	ds	1
  1182  0034                     applicationControl@ChildLockString:	
  1183                           
  1184                           ; 1 bytes @ 0x14
  1185  0034                     	ds	1
  1186  0035                     applicationControl@FinalframebitString:	
  1187                           
  1188                           ; 1 bytes @ 0x15
  1189  0035                     	ds	1
  1190  0036                     ??_applicationControl:	
  1191                           
  1192                           ; 1 bytes @ 0x16
  1193  0036                     	ds	1
  1194  0037                     applicationControl@IntergerRedColorIntensity:	
  1195                           
  1196                           ; 2 bytes @ 0x17
  1197  0037                     	ds	2
  1198  0039                     applicationControl@IntegerGreenColorIntensity:	
  1199                           
  1200                           ; 2 bytes @ 0x19
  1201  0039                     	ds	2
  1202  003B                     applicationControl@IntegerBlueColorIntensity:	
  1203                           
  1204                           ; 2 bytes @ 0x1B
  1205  003B                     	ds	2
  1206  003D                     applicationControl@charSwitchState:	
  1207                           
  1208                           ; 1 bytes @ 0x1D
  1209  003D                     	ds	1
  1210  003E                     applicationControl@IntegerChildLock:	
  1211                           
  1212                           ; 2 bytes @ 0x1E
  1213  003E                     	ds	2
  1214  0040                     applicationControl@IntegerFinalframebit:	
  1215                           
  1216                           ; 2 bytes @ 0x20
  1217  0040                     	ds	2
  1218  0042                     applicationControl@charchildLock:	
  1219                           
  1220                           ; 1 bytes @ 0x22
  1221  0042                     	ds	1
  1222  0043                     applicationControl@ModuleNameString:	
  1223                           
  1224                           ; 1 bytes @ 0x23
  1225  0043                     	ds	1
  1226  0044                     applicationControl@IntegerSwitchNumber:	
  1227                           
  1228                           ; 2 bytes @ 0x24
  1229  0044                     	ds	2
  1230  0046                     applicationControl@IntergerSwitchStatus:	
  1231                           
  1232                           ; 2 bytes @ 0x26
  1233  0046                     	ds	2
  1234  0048                     applicationControl@i:	
  1235                           
  1236                           ; 2 bytes @ 0x28
  1237  0048                     	ds	2
  1238  004A                     ??_main:	
  1239                           
  1240                           ; 1 bytes @ 0x2A
  1241  004A                     	ds	8
  1242                           
  1243                           	psect	maintext
  1244  03C1                     __pmaintext:	
  1245 ;;
  1246 ;;Main: autosize = 0, tempsize = 8, incstack = 0, save=0
  1247 ;;
  1248 ;; *************** function _main *****************
  1249 ;; Defined at:
  1250 ;;		line 226 in file "mainFileRgbNewframeFormate.c"
  1251 ;; Parameters:    Size  Location     Type
  1252 ;;		None
  1253 ;; Auto vars:     Size  Location     Type
  1254 ;;  dataBufferCo    2    0[BANK1 ] int 
  1255 ;;  man             2    2[BANK1 ] int 
  1256 ;; Return value:  Size  Location     Type
  1257 ;;                  2  203[None  ] int 
  1258 ;; Registers used:
  1259 ;;		wreg, fsr0l, fsr0h, fsr1l, fsr1h, status,2, status,0, pclath, cstack
  1260 ;; Tracked objects:
  1261 ;;		On entry : B1F/0
  1262 ;;		On exit  : 0/0
  1263 ;;		Unchanged: 0/0
  1264 ;; Data sizes:     COMMON   BANK0   BANK1   BANK2   BANK3   BANK4   BANK5   BANK6   BANK7   BANK8   BANK9
  1265 ;;      Params:         0       0       0       0       0       0       0       0       0       0       0
  1266 ;;      Locals:         0       0       4       0       0       0       0       0       0       0       0
  1267 ;;      Temps:          0       8       0       0       0       0       0       0       0       0       0
  1268 ;;      Totals:         0       8       4       0       0       0       0       0       0       0       0
  1269 ;;Total ram usage:       12 bytes
  1270 ;; Hardware stack levels required when called:    5
  1271 ;; This function calls:
  1272 ;;		_GPIO_pin_Initialize
  1273 ;;		_allPeripheralInit
  1274 ;;		_applicationControl
  1275 ;;		_errorsMain
  1276 ;;		_sendAcknowledgment
  1277 ;; This function is called by:
  1278 ;;		Startup code after reset
  1279 ;; This function uses a non-reentrant model
  1280 ;;
  1281                           
  1282                           
  1283                           ;psect for function _main
  1284  03C1                     _main:	
  1285                           
  1286                           ;mainFileRgbNewframeFormate.c: 227: _delay((unsigned long)((2000)*(16000000/4000.0)));
  1287                           
  1288                           ;incstack = 0
  1289                           ; Regs used in _main: [wreg-fsr1h+status,2+status,0+pclath+cstack]
  1290  03C1  3029               	movlw	41
  1291  03C2  0020               	movlb	0	; select bank0
  1292  03C3  00CB               	movwf	??_main+1
  1293  03C4  3096               	movlw	150
  1294  03C5  00CA               	movwf	??_main
  1295  03C6  307F               	movlw	127
  1296  03C7                     u2527:	
  1297  03C7  0B89               	decfsz	9,f
  1298  03C8  2BC7               	goto	u2527
  1299  03C9  0BCA               	decfsz	??_main,f
  1300  03CA  2BC7               	goto	u2527
  1301  03CB  0BCB               	decfsz	??_main+1,f
  1302  03CC  2BC7               	goto	u2527
  1303                           
  1304                           ;mainFileRgbNewframeFormate.c: 228: M1=1; M2=1; M3=1; M4=1; M5=1;
  1305  03CD  3001               	movlw	1
  1306  03CE  0020               	movlb	0	; select bank0
  1307  03CF  00DC               	movwf	_M1
  1308  03D0  3000               	movlw	0
  1309  03D1  00DD               	movwf	_M1+1
  1310  03D2  3001               	movlw	1
  1311  03D3  00DA               	movwf	_M2
  1312  03D4  3000               	movlw	0
  1313  03D5  00DB               	movwf	_M2+1
  1314  03D6  3001               	movlw	1
  1315  03D7  00D8               	movwf	_M3
  1316  03D8  3000               	movlw	0
  1317  03D9  00D9               	movwf	_M3+1
  1318  03DA  3001               	movlw	1
  1319  03DB  00D6               	movwf	_M4
  1320  03DC  3000               	movlw	0
  1321  03DD  00D7               	movwf	_M4+1
  1322  03DE  3001               	movlw	1
  1323  03DF  00D4               	movwf	_M5
  1324  03E0  3000               	movlw	0
  1325  03E1  00D5               	movwf	_M5+1
  1326                           
  1327                           ;mainFileRgbNewframeFormate.c: 229: PORTFbits.RF1 = 0; PORTFbits.RF0 = 0; PORTAbits.RA3 
      +                          = 0; PORTAbits.RA2 = 0;
  1328  03E2  0025               	movlb	5	; select bank5
  1329  03E3  108C               	bcf	12,1	;volatile
  1330  03E4  100C               	bcf	12,0	;volatile
  1331  03E5  0020               	movlb	0	; select bank0
  1332  03E6  118C               	bcf	12,3	;volatile
  1333  03E7  110C               	bcf	12,2	;volatile
  1334                           
  1335                           ;mainFileRgbNewframeFormate.c: 231: GPIO_pin_Initialize();
  1336  03E8  3187  27E5  3183   	fcall	_GPIO_pin_Initialize
  1337                           
  1338                           ;mainFileRgbNewframeFormate.c: 232: allPeripheralInit();
  1339  03EB  318F  27B3  3183   	fcall	_allPeripheralInit
  1340  03EE                     l2233:	
  1341                           ;mainFileRgbNewframeFormate.c: 234: while(1){
  1342                           
  1343                           
  1344                           ;mainFileRgbNewframeFormate.c: 235: if(mainDataReceived == 1){
  1345  03EE  0020               	movlb	0	; select bank0
  1346  03EF  0352               	decf	_mainDataReceived,w
  1347  03F0  0453               	iorwf	_mainDataReceived+1,w
  1348  03F1  1D03               	btfss	3,2
  1349  03F2  2C80               	goto	l2275
  1350                           
  1351                           ;mainFileRgbNewframeFormate.c: 237: mainDataReceived=0;
  1352  03F3  01D2               	clrf	_mainDataReceived
  1353  03F4  01D3               	clrf	_mainDataReceived+1
  1354                           
  1355                           ;mainFileRgbNewframeFormate.c: 321: if(copymainReceivedDataBuffer[0] == 'R' && copymainR
      +                          eceivedDataBuffer[1] == 'G' && copymainReceivedDataBuffer[2] == 'B' && copymainReceivedD
      +                          ataBuffer[7] == 'A'
  1356                           ;mainFileRgbNewframeFormate.c: 322: && copymainReceivedDataBuffer[8] == 'C' && copymainR
      +                          eceivedDataBuffer[9] == 'T' && copymainReceivedDataBuffer[27] == '1' && copymainReceived
      +                          DataBuffer[29] == '|'){
  1357  03F5  3052               	movlw	82
  1358  03F6  0021               	movlb	1	; select bank1
  1359  03F7  0620               	xorwf	_copymainReceivedDataBuffer^(0+128),w
  1360  03F8  1D03               	btfss	3,2
  1361  03F9  2C44               	goto	l2257
  1362  03FA  3047               	movlw	71
  1363  03FB  0621               	xorwf	(_copymainReceivedDataBuffer^(0+128)+1),w
  1364  03FC  1D03               	btfss	3,2
  1365  03FD  2C44               	goto	l2257
  1366  03FE  3042               	movlw	66
  1367  03FF  0622               	xorwf	(_copymainReceivedDataBuffer^(0+128)+2),w
  1368  0400  1D03               	btfss	3,2
  1369  0401  2C44               	goto	l2257
  1370  0402  3041               	movlw	65
  1371  0403  0627               	xorwf	(_copymainReceivedDataBuffer^(0+128)+7),w
  1372  0404  1D03               	btfss	3,2
  1373  0405  2C44               	goto	l2257
  1374  0406  3043               	movlw	67
  1375  0407  0628               	xorwf	(_copymainReceivedDataBuffer^(0+128)+8),w
  1376  0408  1D03               	btfss	3,2
  1377  0409  2C44               	goto	l2257
  1378  040A  3054               	movlw	84
  1379  040B  0629               	xorwf	(_copymainReceivedDataBuffer^(0+128)+9),w
  1380  040C  1D03               	btfss	3,2
  1381  040D  2C44               	goto	l2257
  1382  040E  3031               	movlw	49
  1383  040F  063B               	xorwf	(_copymainReceivedDataBuffer^(0+128)+27),w
  1384  0410  1D03               	btfss	3,2
  1385  0411  2C44               	goto	l2257
  1386  0412  307C               	movlw	124
  1387  0413  063D               	xorwf	(_copymainReceivedDataBuffer^(0+128)+29),w
  1388  0414  1D03               	btfss	3,2
  1389  0415  2C44               	goto	l2257
  1390                           
  1391                           ;mainFileRgbNewframeFormate.c: 323: errorsMain("OK");
  1392  0416  3018               	movlw	low (STR_14| (0+32768))
  1393  0417  0020               	movlb	0	; select bank0
  1394  0418  00A0               	movwf	errorsMain@errNum
  1395  0419  3090               	movlw	high (STR_14| (0+32768))
  1396  041A  00A1               	movwf	errorsMain@errNum+1
  1397  041B  3186  266D  3183   	fcall	_errorsMain
  1398                           
  1399                           ;mainFileRgbNewframeFormate.c: 324: applicationControl(ModuleNameString,SwitchNumberStri
      +                          ng,AcknowledgementString,SwitchStatusString,
  1400                           ;mainFileRgbNewframeFormate.c: 325: RedColorIntensityString,GreenColorIntensityString,Bl
      +                          ueColorIntensityString,ChildLockString,FinalframebitString );
  1401  041E  0020               	movlb	0	; select bank0
  1402  041F  0865               	movf	_SwitchNumberString,w
  1403  0420  00CA               	movwf	??_main
  1404  0421  084A               	movf	??_main,w
  1405  0422  00AE               	movwf	applicationControl@SwitchNumberString
  1406  0423  0864               	movf	_AcknowledgementString,w
  1407  0424  00CB               	movwf	??_main+1
  1408  0425  084B               	movf	??_main+1,w
  1409  0426  00AF               	movwf	applicationControl@AcknowledgementString
  1410  0427  0863               	movf	_SwitchStatusString,w
  1411  0428  00CC               	movwf	??_main+2
  1412  0429  084C               	movf	??_main+2,w
  1413  042A  00B0               	movwf	applicationControl@SwitchStatusString
  1414  042B  0862               	movf	_RedColorIntensityString,w
  1415  042C  00CD               	movwf	??_main+3
  1416  042D  084D               	movf	??_main+3,w
  1417  042E  00B1               	movwf	applicationControl@RedColorIntensityString
  1418  042F  0861               	movf	_GreenColorIntensityString,w
  1419  0430  00CE               	movwf	??_main+4
  1420  0431  084E               	movf	??_main+4,w
  1421  0432  00B2               	movwf	applicationControl@GreenColorIntensityString
  1422  0433  0860               	movf	_BlueColorIntensityString,w
  1423  0434  00CF               	movwf	??_main+5
  1424  0435  084F               	movf	??_main+5,w
  1425  0436  00B3               	movwf	applicationControl@BlueColorIntensityString
  1426  0437  085F               	movf	_ChildLockString,w
  1427  0438  00D0               	movwf	??_main+6
  1428  0439  0850               	movf	??_main+6,w
  1429  043A  00B4               	movwf	applicationControl@ChildLockString
  1430  043B  085E               	movf	_FinalframebitString,w
  1431  043C  00D1               	movwf	??_main+7
  1432  043D  0851               	movf	??_main+7,w
  1433  043E  00B5               	movwf	applicationControl@FinalframebitString
  1434  043F  0866               	movf	_ModuleNameString,w
  1435  0440  3180  20D3  3183   	fcall	_applicationControl
  1436                           
  1437                           ;mainFileRgbNewframeFormate.c: 326: }
  1438  0443  2C80               	goto	l2275
  1439  0444                     l2257:	
  1440                           
  1441                           ;mainFileRgbNewframeFormate.c: 327: else
  1442                           ;mainFileRgbNewframeFormate.c: 328: {
  1443                           ;mainFileRgbNewframeFormate.c: 332: errorsMain("FRLS");
  1444  0444  3007               	movlw	low (STR_17| (0+32768))
  1445  0445  0020               	movlb	0	; select bank0
  1446  0446  00A0               	movwf	errorsMain@errNum
  1447  0447  3090               	movlw	high (STR_17| (0+32768))
  1448  0448  00A1               	movwf	errorsMain@errNum+1
  1449  0449  3186  266D  3183   	fcall	_errorsMain
  1450                           
  1451                           ;mainFileRgbNewframeFormate.c: 333: RC1STAbits.SPEN=0;
  1452  044C  0023               	movlb	3	; select bank3
  1453  044D  139D               	bcf	29,7	;volatile
  1454                           
  1455                           ;mainFileRgbNewframeFormate.c: 334: RC1STAbits.CREN = 0;
  1456  044E  121D               	bcf	29,4	;volatile
  1457                           
  1458                           ;mainFileRgbNewframeFormate.c: 335: for(int dataBufferCounter = 0; dataBufferCounter < 2
      +                          9; dataBufferCounter++)
  1459  044F  0021               	movlb	1	; select bank1
  1460  0450  01E1               	clrf	main@dataBufferCounter^(0+128)
  1461  0451  01E2               	clrf	(main@dataBufferCounter+1)^(0+128)
  1462  0452  0862               	movf	(main@dataBufferCounter+1)^(0+128),w
  1463  0453  3A80               	xorlw	128
  1464  0454  0020               	movlb	0	; select bank0
  1465  0455  00CA               	movwf	??_main
  1466  0456  3080               	movlw	128
  1467  0457  024A               	subwf	??_main,w
  1468  0458  1D03               	skipz
  1469  0459  2C5D               	goto	u2185
  1470  045A  301D               	movlw	29
  1471  045B  0021               	movlb	1	; select bank1
  1472  045C  0261               	subwf	main@dataBufferCounter^(0+128),w
  1473  045D                     u2185:	
  1474  045D  1803               	btfsc	3,0
  1475  045E  2C7D               	goto	l209
  1476  045F                     l2269:	
  1477                           
  1478                           ;mainFileRgbNewframeFormate.c: 336: {
  1479                           ;mainFileRgbNewframeFormate.c: 337: mainReceivedDataBuffer[dataBufferCounter] = '#';
  1480  045F  3023               	movlw	35
  1481  0460  0020               	movlb	0	; select bank0
  1482  0461  00CA               	movwf	??_main
  1483  0462  0021               	movlb	1	; select bank1
  1484  0463  0861               	movf	main@dataBufferCounter^(0+128),w
  1485  0464  3E4E               	addlw	(low (_mainReceivedDataBuffer| (0+256)))& (0+255)
  1486  0465  0086               	movwf	6
  1487  0466  3001               	movlw	1	; select bank2/3
  1488  0467  0087               	movwf	7
  1489  0468  0020               	movlb	0	; select bank0
  1490  0469  084A               	movf	??_main,w
  1491  046A  0081               	movwf	1
  1492  046B  3001               	movlw	1
  1493  046C  0021               	movlb	1	; select bank1
  1494  046D  07E1               	addwf	main@dataBufferCounter^(0+128),f
  1495  046E  3000               	movlw	0
  1496  046F  3DE2               	addwfc	(main@dataBufferCounter+1)^(0+128),f
  1497  0470  0862               	movf	(main@dataBufferCounter+1)^(0+128),w
  1498  0471  3A80               	xorlw	128
  1499  0472  0020               	movlb	0	; select bank0
  1500  0473  00CA               	movwf	??_main
  1501  0474  3080               	movlw	128
  1502  0475  024A               	subwf	??_main,w
  1503  0476  1D03               	skipz
  1504  0477  2C7B               	goto	u2195
  1505  0478  301D               	movlw	29
  1506  0479  0021               	movlb	1	; select bank1
  1507  047A  0261               	subwf	main@dataBufferCounter^(0+128),w
  1508  047B                     u2195:	
  1509  047B  1C03               	skipc
  1510  047C  2C5F               	goto	l2269
  1511  047D                     l209:	
  1512                           
  1513                           ;mainFileRgbNewframeFormate.c: 338: }
  1514                           ;mainFileRgbNewframeFormate.c: 339: RC1STAbits.CREN = 1;
  1515  047D  0023               	movlb	3	; select bank3
  1516  047E  161D               	bsf	29,4	;volatile
  1517                           
  1518                           ;mainFileRgbNewframeFormate.c: 340: RC1STAbits.SPEN=1;
  1519  047F  179D               	bsf	29,7	;volatile
  1520  0480                     l2275:	
  1521                           
  1522                           ;mainFileRgbNewframeFormate.c: 341: }
  1523                           ;mainFileRgbNewframeFormate.c: 345: }
  1524                           ;mainFileRgbNewframeFormate.c: 350: int man = 1;
  1525  0480  3001               	movlw	1
  1526  0481  0021               	movlb	1	; select bank1
  1527  0482  00E3               	movwf	main@man^(0+128)
  1528  0483  3000               	movlw	0
  1529  0484  00E4               	movwf	(main@man^(0+128)+1)
  1530                           
  1531                           ;mainFileRgbNewframeFormate.c: 351: if(parentalLockBuffer[1] == '0' && PORTFbits.RF7 == 
      +                          0 && M1 == 0)
  1532  0485  3030               	movlw	48
  1533  0486  0648               	xorwf	(_parentalLockBuffer^(0+128)+1),w
  1534  0487  1D03               	btfss	3,2
  1535  0488  2CA8               	goto	l2293
  1536  0489  0025               	movlb	5	; select bank5
  1537  048A  1B8C               	btfsc	12,7	;volatile
  1538  048B  2CA8               	goto	l2293
  1539  048C  0020               	movlb	0	; select bank0
  1540  048D  085C               	movf	_M1,w
  1541  048E  045D               	iorwf	_M1+1,w
  1542  048F  1D03               	btfss	3,2
  1543  0490  2CA8               	goto	l2293
  1544                           
  1545                           ;mainFileRgbNewframeFormate.c: 352: {
  1546                           ;mainFileRgbNewframeFormate.c: 353: if(man == 1)
  1547  0491  0021               	movlb	1	; select bank1
  1548  0492  0363               	decf	main@man^(0+128),w
  1549  0493  0464               	iorwf	(main@man+1)^(0+128),w
  1550  0494  1D03               	btfss	3,2
  1551  0495  2CA0               	goto	l2289
  1552                           
  1553                           ;mainFileRgbNewframeFormate.c: 354: {
  1554                           ;mainFileRgbNewframeFormate.c: 355: sendAcknowledgment("SW.01.ACTACK.0.0.0.0.0.1.|");
  1555  0496  30C3               	movlw	low (STR_18| (0+32768))
  1556  0497  0020               	movlb	0	; select bank0
  1557  0498  00A0               	movwf	sendAcknowledgment@currentStateBuffer
  1558  0499  3086               	movlw	high (STR_18| (0+32768))
  1559  049A  00A1               	movwf	sendAcknowledgment@currentStateBuffer+1
  1560  049B  3186  268A  3183   	fcall	_sendAcknowledgment
  1561                           
  1562                           ;mainFileRgbNewframeFormate.c: 357: PORTFbits.RF1=0;
  1563  049E  0025               	movlb	5	; select bank5
  1564  049F  108C               	bcf	12,1	;volatile
  1565  04A0                     l2289:	
  1566                           
  1567                           ;mainFileRgbNewframeFormate.c: 358: }
  1568                           ;mainFileRgbNewframeFormate.c: 359: man=0;
  1569  04A0  0021               	movlb	1	; select bank1
  1570  04A1  01E3               	clrf	main@man^(0+128)
  1571  04A2  01E4               	clrf	(main@man+1)^(0+128)
  1572                           
  1573                           ;mainFileRgbNewframeFormate.c: 360: M1=1;
  1574  04A3  3001               	movlw	1
  1575  04A4  0020               	movlb	0	; select bank0
  1576  04A5  00DC               	movwf	_M1
  1577  04A6  3000               	movlw	0
  1578  04A7  00DD               	movwf	_M1+1
  1579  04A8                     l2293:	
  1580                           
  1581                           ;mainFileRgbNewframeFormate.c: 362: }
  1582                           ;mainFileRgbNewframeFormate.c: 364: if(parentalLockBuffer[1] == '0' && PORTFbits.RF7 == 
      +                          1 && M1 == 1)
  1583  04A8  3030               	movlw	48
  1584  04A9  0021               	movlb	1	; select bank1
  1585  04AA  0648               	xorwf	(_parentalLockBuffer^(0+128)+1),w
  1586  04AB  1D03               	btfss	3,2
  1587  04AC  2CCA               	goto	l2309
  1588  04AD  0025               	movlb	5	; select bank5
  1589  04AE  1F8C               	btfss	12,7	;volatile
  1590  04AF  2CCA               	goto	l2309
  1591  04B0  0020               	movlb	0	; select bank0
  1592  04B1  035C               	decf	_M1,w
  1593  04B2  045D               	iorwf	_M1+1,w
  1594  04B3  1D03               	btfss	3,2
  1595  04B4  2CCA               	goto	l2309
  1596                           
  1597                           ;mainFileRgbNewframeFormate.c: 365: {
  1598                           ;mainFileRgbNewframeFormate.c: 367: if(man==1)
  1599  04B5  0021               	movlb	1	; select bank1
  1600  04B6  0363               	decf	main@man^(0+128),w
  1601  04B7  0464               	iorwf	(main@man+1)^(0+128),w
  1602  04B8  1D03               	btfss	3,2
  1603  04B9  2CC4               	goto	l2305
  1604                           
  1605                           ;mainFileRgbNewframeFormate.c: 368: {
  1606                           ;mainFileRgbNewframeFormate.c: 369: sendAcknowledgment("SW.01.ACTACK.1.0.0.0.0.1.|");
  1607  04BA  302F               	movlw	low (STR_19| (0+32768))
  1608  04BB  0020               	movlb	0	; select bank0
  1609  04BC  00A0               	movwf	sendAcknowledgment@currentStateBuffer
  1610  04BD  3087               	movlw	high (STR_19| (0+32768))
  1611  04BE  00A1               	movwf	sendAcknowledgment@currentStateBuffer+1
  1612  04BF  3186  268A  3183   	fcall	_sendAcknowledgment
  1613                           
  1614                           ;mainFileRgbNewframeFormate.c: 370: PORTFbits.RF1=1;
  1615  04C2  0025               	movlb	5	; select bank5
  1616  04C3  148C               	bsf	12,1	;volatile
  1617  04C4                     l2305:	
  1618                           
  1619                           ;mainFileRgbNewframeFormate.c: 371: }
  1620                           ;mainFileRgbNewframeFormate.c: 372: man=0;
  1621  04C4  0021               	movlb	1	; select bank1
  1622  04C5  01E3               	clrf	main@man^(0+128)
  1623  04C6  01E4               	clrf	(main@man+1)^(0+128)
  1624                           
  1625                           ;mainFileRgbNewframeFormate.c: 373: M1=0;
  1626  04C7  0020               	movlb	0	; select bank0
  1627  04C8  01DC               	clrf	_M1
  1628  04C9  01DD               	clrf	_M1+1
  1629  04CA                     l2309:	
  1630                           
  1631                           ;mainFileRgbNewframeFormate.c: 374: }
  1632                           ;mainFileRgbNewframeFormate.c: 378: if(parentalLockBuffer[2] == '0' && PORTFbits.RF5 == 
      +                          0 && M2 == 0)
  1633  04CA  3030               	movlw	48
  1634  04CB  0021               	movlb	1	; select bank1
  1635  04CC  0649               	xorwf	(_parentalLockBuffer^(0+128)+2),w
  1636  04CD  1D03               	btfss	3,2
  1637  04CE  2CEE               	goto	l2325
  1638  04CF  0025               	movlb	5	; select bank5
  1639  04D0  1A8C               	btfsc	12,5	;volatile
  1640  04D1  2CEE               	goto	l2325
  1641  04D2  0020               	movlb	0	; select bank0
  1642  04D3  085A               	movf	_M2,w
  1643  04D4  045B               	iorwf	_M2+1,w
  1644  04D5  1D03               	btfss	3,2
  1645  04D6  2CEE               	goto	l2325
  1646                           
  1647                           ;mainFileRgbNewframeFormate.c: 379: {
  1648                           ;mainFileRgbNewframeFormate.c: 380: if(man==1)
  1649  04D7  0021               	movlb	1	; select bank1
  1650  04D8  0363               	decf	main@man^(0+128),w
  1651  04D9  0464               	iorwf	(main@man+1)^(0+128),w
  1652  04DA  1D03               	btfss	3,2
  1653  04DB  2CE6               	goto	l2321
  1654                           
  1655                           ;mainFileRgbNewframeFormate.c: 381: {
  1656                           ;mainFileRgbNewframeFormate.c: 382: sendAcknowledgment("SW.01.ACTACK.2.0.0.0.0.1.|");
  1657  04DC  3080               	movlw	low (STR_20| (0+32768))
  1658  04DD  0020               	movlb	0	; select bank0
  1659  04DE  00A0               	movwf	sendAcknowledgment@currentStateBuffer
  1660  04DF  3087               	movlw	high (STR_20| (0+32768))
  1661  04E0  00A1               	movwf	sendAcknowledgment@currentStateBuffer+1
  1662  04E1  3186  268A  3183   	fcall	_sendAcknowledgment
  1663                           
  1664                           ;mainFileRgbNewframeFormate.c: 383: PORTFbits.RF0=0;
  1665  04E4  0025               	movlb	5	; select bank5
  1666  04E5  100C               	bcf	12,0	;volatile
  1667  04E6                     l2321:	
  1668                           
  1669                           ;mainFileRgbNewframeFormate.c: 384: }
  1670                           ;mainFileRgbNewframeFormate.c: 385: man=0;
  1671  04E6  0021               	movlb	1	; select bank1
  1672  04E7  01E3               	clrf	main@man^(0+128)
  1673  04E8  01E4               	clrf	(main@man+1)^(0+128)
  1674                           
  1675                           ;mainFileRgbNewframeFormate.c: 386: M2=1;
  1676  04E9  3001               	movlw	1
  1677  04EA  0020               	movlb	0	; select bank0
  1678  04EB  00DA               	movwf	_M2
  1679  04EC  3000               	movlw	0
  1680  04ED  00DB               	movwf	_M2+1
  1681  04EE                     l2325:	
  1682                           
  1683                           ;mainFileRgbNewframeFormate.c: 387: }
  1684                           ;mainFileRgbNewframeFormate.c: 389: if(parentalLockBuffer[2] == '0' && PORTFbits.RF5 == 
      +                          1 && M2 == 1)
  1685  04EE  3030               	movlw	48
  1686  04EF  0021               	movlb	1	; select bank1
  1687  04F0  0649               	xorwf	(_parentalLockBuffer^(0+128)+2),w
  1688  04F1  1D03               	btfss	3,2
  1689  04F2  2D10               	goto	l2341
  1690  04F3  0025               	movlb	5	; select bank5
  1691  04F4  1E8C               	btfss	12,5	;volatile
  1692  04F5  2D10               	goto	l2341
  1693  04F6  0020               	movlb	0	; select bank0
  1694  04F7  035A               	decf	_M2,w
  1695  04F8  045B               	iorwf	_M2+1,w
  1696  04F9  1D03               	btfss	3,2
  1697  04FA  2D10               	goto	l2341
  1698                           
  1699                           ;mainFileRgbNewframeFormate.c: 390: {
  1700                           ;mainFileRgbNewframeFormate.c: 391: if(man==1)
  1701  04FB  0021               	movlb	1	; select bank1
  1702  04FC  0363               	decf	main@man^(0+128),w
  1703  04FD  0464               	iorwf	(main@man+1)^(0+128),w
  1704  04FE  1D03               	btfss	3,2
  1705  04FF  2D0A               	goto	l2337
  1706                           
  1707                           ;mainFileRgbNewframeFormate.c: 392: {
  1708                           ;mainFileRgbNewframeFormate.c: 393: sendAcknowledgment("SW.02.ACTACK.0.0.0.0.0.1.|");
  1709  0500  30DE               	movlw	low (STR_21| (0+32768))
  1710  0501  0020               	movlb	0	; select bank0
  1711  0502  00A0               	movwf	sendAcknowledgment@currentStateBuffer
  1712  0503  3086               	movlw	high (STR_21| (0+32768))
  1713  0504  00A1               	movwf	sendAcknowledgment@currentStateBuffer+1
  1714  0505  3186  268A  3183   	fcall	_sendAcknowledgment
  1715                           
  1716                           ;mainFileRgbNewframeFormate.c: 394: PORTFbits.RF0=1;
  1717  0508  0025               	movlb	5	; select bank5
  1718  0509  140C               	bsf	12,0	;volatile
  1719  050A                     l2337:	
  1720                           
  1721                           ;mainFileRgbNewframeFormate.c: 395: }
  1722                           ;mainFileRgbNewframeFormate.c: 396: man=0;
  1723  050A  0021               	movlb	1	; select bank1
  1724  050B  01E3               	clrf	main@man^(0+128)
  1725  050C  01E4               	clrf	(main@man+1)^(0+128)
  1726                           
  1727                           ;mainFileRgbNewframeFormate.c: 397: M2=0;
  1728  050D  0020               	movlb	0	; select bank0
  1729  050E  01DA               	clrf	_M2
  1730  050F  01DB               	clrf	_M2+1
  1731  0510                     l2341:	
  1732                           
  1733                           ;mainFileRgbNewframeFormate.c: 398: }
  1734                           ;mainFileRgbNewframeFormate.c: 403: if(parentalLockBuffer[3] == '0' && PORTFbits.RF3 == 
      +                          0 && M3 == 0)
  1735  0510  3030               	movlw	48
  1736  0511  0021               	movlb	1	; select bank1
  1737  0512  064A               	xorwf	(_parentalLockBuffer^(0+128)+3),w
  1738  0513  1D03               	btfss	3,2
  1739  0514  2D34               	goto	l2357
  1740  0515  0025               	movlb	5	; select bank5
  1741  0516  198C               	btfsc	12,3	;volatile
  1742  0517  2D34               	goto	l2357
  1743  0518  0020               	movlb	0	; select bank0
  1744  0519  0858               	movf	_M3,w
  1745  051A  0459               	iorwf	_M3+1,w
  1746  051B  1D03               	btfss	3,2
  1747  051C  2D34               	goto	l2357
  1748                           
  1749                           ;mainFileRgbNewframeFormate.c: 404: {
  1750                           ;mainFileRgbNewframeFormate.c: 405: if(man == 1)
  1751  051D  0021               	movlb	1	; select bank1
  1752  051E  0363               	decf	main@man^(0+128),w
  1753  051F  0464               	iorwf	(main@man+1)^(0+128),w
  1754  0520  1D03               	btfss	3,2
  1755  0521  2D2C               	goto	l2353
  1756                           
  1757                           ;mainFileRgbNewframeFormate.c: 406: {
  1758                           ;mainFileRgbNewframeFormate.c: 407: sendAcknowledgment("SW.03.ACTACK.0.0.0.0.0.1.|");
  1759  0522  30F9               	movlw	low (STR_22| (0+32768))
  1760  0523  0020               	movlb	0	; select bank0
  1761  0524  00A0               	movwf	sendAcknowledgment@currentStateBuffer
  1762  0525  3086               	movlw	high (STR_22| (0+32768))
  1763  0526  00A1               	movwf	sendAcknowledgment@currentStateBuffer+1
  1764  0527  3186  268A  3183   	fcall	_sendAcknowledgment
  1765                           
  1766                           ;mainFileRgbNewframeFormate.c: 408: PORTAbits.RA3=0;
  1767  052A  0020               	movlb	0	; select bank0
  1768  052B  118C               	bcf	12,3	;volatile
  1769  052C                     l2353:	
  1770                           
  1771                           ;mainFileRgbNewframeFormate.c: 409: }
  1772                           ;mainFileRgbNewframeFormate.c: 410: man=0;
  1773  052C  0021               	movlb	1	; select bank1
  1774  052D  01E3               	clrf	main@man^(0+128)
  1775  052E  01E4               	clrf	(main@man+1)^(0+128)
  1776                           
  1777                           ;mainFileRgbNewframeFormate.c: 411: M3=1;
  1778  052F  3001               	movlw	1
  1779  0530  0020               	movlb	0	; select bank0
  1780  0531  00D8               	movwf	_M3
  1781  0532  3000               	movlw	0
  1782  0533  00D9               	movwf	_M3+1
  1783  0534                     l2357:	
  1784                           
  1785                           ;mainFileRgbNewframeFormate.c: 413: }
  1786                           ;mainFileRgbNewframeFormate.c: 415: if(parentalLockBuffer[3] == '0' && PORTFbits.RF3 == 
      +                          1 && M3 == 1)
  1787  0534  3030               	movlw	48
  1788  0535  0021               	movlb	1	; select bank1
  1789  0536  064A               	xorwf	(_parentalLockBuffer^(0+128)+3),w
  1790  0537  1D03               	btfss	3,2
  1791  0538  2D56               	goto	l2373
  1792  0539  0025               	movlb	5	; select bank5
  1793  053A  1D8C               	btfss	12,3	;volatile
  1794  053B  2D56               	goto	l2373
  1795  053C  0020               	movlb	0	; select bank0
  1796  053D  0358               	decf	_M3,w
  1797  053E  0459               	iorwf	_M3+1,w
  1798  053F  1D03               	btfss	3,2
  1799  0540  2D56               	goto	l2373
  1800                           
  1801                           ;mainFileRgbNewframeFormate.c: 416: {
  1802                           ;mainFileRgbNewframeFormate.c: 417: if(man==1)
  1803  0541  0021               	movlb	1	; select bank1
  1804  0542  0363               	decf	main@man^(0+128),w
  1805  0543  0464               	iorwf	(main@man+1)^(0+128),w
  1806  0544  1D03               	btfss	3,2
  1807  0545  2D50               	goto	l2369
  1808                           
  1809                           ;mainFileRgbNewframeFormate.c: 418: {
  1810                           ;mainFileRgbNewframeFormate.c: 419: sendAcknowledgment("SW.03.ACTACK.1.0.0.0.0.1.|");
  1811  0546  304A               	movlw	low (STR_23| (0+32768))
  1812  0547  0020               	movlb	0	; select bank0
  1813  0548  00A0               	movwf	sendAcknowledgment@currentStateBuffer
  1814  0549  3087               	movlw	high (STR_23| (0+32768))
  1815  054A  00A1               	movwf	sendAcknowledgment@currentStateBuffer+1
  1816  054B  3186  268A  3183   	fcall	_sendAcknowledgment
  1817                           
  1818                           ;mainFileRgbNewframeFormate.c: 420: PORTAbits.RA3=1;
  1819  054E  0020               	movlb	0	; select bank0
  1820  054F  158C               	bsf	12,3	;volatile
  1821  0550                     l2369:	
  1822                           
  1823                           ;mainFileRgbNewframeFormate.c: 421: }
  1824                           ;mainFileRgbNewframeFormate.c: 422: man=0;
  1825  0550  0021               	movlb	1	; select bank1
  1826  0551  01E3               	clrf	main@man^(0+128)
  1827  0552  01E4               	clrf	(main@man+1)^(0+128)
  1828                           
  1829                           ;mainFileRgbNewframeFormate.c: 423: M3=0;
  1830  0553  0020               	movlb	0	; select bank0
  1831  0554  01D8               	clrf	_M3
  1832  0555  01D9               	clrf	_M3+1
  1833  0556                     l2373:	
  1834                           
  1835                           ;mainFileRgbNewframeFormate.c: 425: }
  1836                           ;mainFileRgbNewframeFormate.c: 429: if(parentalLockBuffer[4] == '0' && PORTFbits.RF2 == 
      +                          0 && M4 == 0)
  1837  0556  3030               	movlw	48
  1838  0557  0021               	movlb	1	; select bank1
  1839  0558  064B               	xorwf	(_parentalLockBuffer^(0+128)+4),w
  1840  0559  1D03               	btfss	3,2
  1841  055A  2D7A               	goto	l2389
  1842  055B  0025               	movlb	5	; select bank5
  1843  055C  190C               	btfsc	12,2	;volatile
  1844  055D  2D7A               	goto	l2389
  1845  055E  0020               	movlb	0	; select bank0
  1846  055F  0856               	movf	_M4,w
  1847  0560  0457               	iorwf	_M4+1,w
  1848  0561  1D03               	btfss	3,2
  1849  0562  2D7A               	goto	l2389
  1850                           
  1851                           ;mainFileRgbNewframeFormate.c: 430: {
  1852                           ;mainFileRgbNewframeFormate.c: 431: if(man==1)
  1853  0563  0021               	movlb	1	; select bank1
  1854  0564  0363               	decf	main@man^(0+128),w
  1855  0565  0464               	iorwf	(main@man+1)^(0+128),w
  1856  0566  1D03               	btfss	3,2
  1857  0567  2D72               	goto	l2385
  1858                           
  1859                           ;mainFileRgbNewframeFormate.c: 432: {
  1860                           ;mainFileRgbNewframeFormate.c: 433: sendAcknowledgment("SW.04.ACTACK.0.0.0.0.0.1.|");
  1861  0568  3014               	movlw	low (STR_24| (0+32768))
  1862  0569  0020               	movlb	0	; select bank0
  1863  056A  00A0               	movwf	sendAcknowledgment@currentStateBuffer
  1864  056B  3087               	movlw	high (STR_24| (0+32768))
  1865  056C  00A1               	movwf	sendAcknowledgment@currentStateBuffer+1
  1866  056D  3186  268A  3183   	fcall	_sendAcknowledgment
  1867                           
  1868                           ;mainFileRgbNewframeFormate.c: 434: PORTAbits.RA2=0;
  1869  0570  0020               	movlb	0	; select bank0
  1870  0571  110C               	bcf	12,2	;volatile
  1871  0572                     l2385:	
  1872                           
  1873                           ;mainFileRgbNewframeFormate.c: 435: }
  1874                           ;mainFileRgbNewframeFormate.c: 436: man=0;
  1875  0572  0021               	movlb	1	; select bank1
  1876  0573  01E3               	clrf	main@man^(0+128)
  1877  0574  01E4               	clrf	(main@man+1)^(0+128)
  1878                           
  1879                           ;mainFileRgbNewframeFormate.c: 437: M4=1;
  1880  0575  3001               	movlw	1
  1881  0576  0020               	movlb	0	; select bank0
  1882  0577  00D6               	movwf	_M4
  1883  0578  3000               	movlw	0
  1884  0579  00D7               	movwf	_M4+1
  1885  057A                     l2389:	
  1886                           
  1887                           ;mainFileRgbNewframeFormate.c: 439: }
  1888                           ;mainFileRgbNewframeFormate.c: 441: if(parentalLockBuffer[4] == '0' && PORTFbits.RF2 == 
      +                          1 && M4 == 1)
  1889  057A  3030               	movlw	48
  1890  057B  0021               	movlb	1	; select bank1
  1891  057C  064B               	xorwf	(_parentalLockBuffer^(0+128)+4),w
  1892  057D  1D03               	btfss	3,2
  1893  057E  2BEE               	goto	l2233
  1894  057F  0025               	movlb	5	; select bank5
  1895  0580  1D0C               	btfss	12,2	;volatile
  1896  0581  2BEE               	goto	l2233
  1897  0582  0020               	movlb	0	; select bank0
  1898  0583  0356               	decf	_M4,w
  1899  0584  0457               	iorwf	_M4+1,w
  1900  0585  1D03               	btfss	3,2
  1901  0586  2BEE               	goto	l2233
  1902                           
  1903                           ;mainFileRgbNewframeFormate.c: 442: {
  1904                           ;mainFileRgbNewframeFormate.c: 443: if(man==1)
  1905  0587  0021               	movlb	1	; select bank1
  1906  0588  0363               	decf	main@man^(0+128),w
  1907  0589  0464               	iorwf	(main@man+1)^(0+128),w
  1908  058A  1D03               	btfss	3,2
  1909  058B  2D96               	goto	l2401
  1910                           
  1911                           ;mainFileRgbNewframeFormate.c: 444: {
  1912                           ;mainFileRgbNewframeFormate.c: 445: sendAcknowledgment("SW.04.ACTACK.1.0.0.0.0.1.|");
  1913  058C  3065               	movlw	low (STR_25| (0+32768))
  1914  058D  0020               	movlb	0	; select bank0
  1915  058E  00A0               	movwf	sendAcknowledgment@currentStateBuffer
  1916  058F  3087               	movlw	high (STR_25| (0+32768))
  1917  0590  00A1               	movwf	sendAcknowledgment@currentStateBuffer+1
  1918  0591  3186  268A  3183   	fcall	_sendAcknowledgment
  1919                           
  1920                           ;mainFileRgbNewframeFormate.c: 446: PORTAbits.RA2=1;
  1921  0594  0020               	movlb	0	; select bank0
  1922  0595  150C               	bsf	12,2	;volatile
  1923  0596                     l2401:	
  1924                           
  1925                           ;mainFileRgbNewframeFormate.c: 447: }
  1926                           ;mainFileRgbNewframeFormate.c: 448: man=0;
  1927  0596  0021               	movlb	1	; select bank1
  1928  0597  01E3               	clrf	main@man^(0+128)
  1929  0598  01E4               	clrf	(main@man+1)^(0+128)
  1930                           
  1931                           ;mainFileRgbNewframeFormate.c: 449: M4=0;
  1932  0599  0020               	movlb	0	; select bank0
  1933  059A  01D6               	clrf	_M4
  1934  059B  01D7               	clrf	_M4+1
  1935  059C  2BEE               	goto	l2233
  1936  059D                     __end_of_main:	
  1937                           
  1938                           	psect	text1
  1939  066D                     __ptext1:	
  1940 ;; *************** function _errorsMain *****************
  1941 ;; Defined at:
  1942 ;;		line 544 in file "mainFileRgbNewframeFormate.c"
  1943 ;; Parameters:    Size  Location     Type
  1944 ;;  errNum          2    0[BANK0 ] PTR unsigned char 
  1945 ;;		 -> STR_17(5), STR_16(3), 
  1946 ;; Auto vars:     Size  Location     Type
  1947 ;;  Tx_count        2    2[BANK0 ] int 
  1948 ;; Return value:  Size  Location     Type
  1949 ;;                  1    wreg      void 
  1950 ;; Registers used:
  1951 ;;		wreg, fsr0l, fsr0h, status,2, status,0, pclath
  1952 ;; Tracked objects:
  1953 ;;		On entry : 0/0
  1954 ;;		On exit  : 0/0
  1955 ;;		Unchanged: 0/0
  1956 ;; Data sizes:     COMMON   BANK0   BANK1   BANK2   BANK3   BANK4   BANK5   BANK6   BANK7   BANK8   BANK9
  1957 ;;      Params:         0       2       0       0       0       0       0       0       0       0       0
  1958 ;;      Locals:         0       2       0       0       0       0       0       0       0       0       0
  1959 ;;      Temps:          0       0       0       0       0       0       0       0       0       0       0
  1960 ;;      Totals:         0       4       0       0       0       0       0       0       0       0       0
  1961 ;;Total ram usage:        4 bytes
  1962 ;; Hardware stack levels used:    1
  1963 ;; Hardware stack levels required when called:    2
  1964 ;; This function calls:
  1965 ;;		Nothing
  1966 ;; This function is called by:
  1967 ;;		_main
  1968 ;; This function uses a non-reentrant model
  1969 ;;
  1970                           
  1971                           
  1972                           ;psect for function _errorsMain
  1973  066D                     _errorsMain:	
  1974                           
  1975                           ;mainFileRgbNewframeFormate.c: 545: int Tx_count=0;
  1976                           
  1977                           ;incstack = 0
  1978                           ; Regs used in _errorsMain: [wreg-fsr0h+status,2+status,0+pclath]
  1979  066D  0020               	movlb	0	; select bank0
  1980  066E  01A2               	clrf	errorsMain@Tx_count
  1981  066F  01A3               	clrf	errorsMain@Tx_count+1
  1982  0670                     l2219:	
  1983                           ;mainFileRgbNewframeFormate.c: 546: while(Tx_count != ((3+2+6+1+3+3+3+1+1)*2))
  1984                           
  1985  0670  302E               	movlw	46
  1986  0671  0622               	xorwf	errorsMain@Tx_count,w
  1987  0672  0423               	iorwf	errorsMain@Tx_count+1,w
  1988  0673  1903               	btfsc	3,2
  1989  0674  0008               	return
  1990  0675                     l251:	
  1991                           ;mainFileRgbNewframeFormate.c: 547: {
  1992                           ;mainFileRgbNewframeFormate.c: 548: while (!TX1STAbits.TRMT);
  1993                           
  1994  0675  0023               	movlb	3	; select bank3
  1995  0676  1C9E               	btfss	30,1	;volatile
  1996  0677  2E75               	goto	l251
  1997                           
  1998                           ;mainFileRgbNewframeFormate.c: 549: TX1REG = *errNum;
  1999  0678  0020               	movlb	0	; select bank0
  2000  0679  0820               	movf	errorsMain@errNum,w
  2001  067A  0084               	movwf	4
  2002  067B  0821               	movf	errorsMain@errNum+1,w
  2003  067C  0085               	movwf	5
  2004  067D  0800               	movf	0,w	;code access
  2005  067E  0023               	movlb	3	; select bank3
  2006  067F  009A               	movwf	26	;volatile
  2007                           
  2008                           ;mainFileRgbNewframeFormate.c: 550: *errNum++;
  2009  0680  3001               	movlw	1
  2010  0681  0020               	movlb	0	; select bank0
  2011  0682  07A0               	addwf	errorsMain@errNum,f
  2012  0683  3000               	movlw	0
  2013  0684  3DA1               	addwfc	errorsMain@errNum+1,f
  2014                           
  2015                           ;mainFileRgbNewframeFormate.c: 551: Tx_count++;
  2016  0685  3001               	movlw	1
  2017  0686  07A2               	addwf	errorsMain@Tx_count,f
  2018  0687  3000               	movlw	0
  2019  0688  3DA3               	addwfc	errorsMain@Tx_count+1,f
  2020  0689  2E70               	goto	l2219
  2021  068A                     __end_of_errorsMain:	
  2022                           
  2023                           	psect	text2
  2024  00D3                     __ptext2:	
  2025 ;; *************** function _applicationControl *****************
  2026 ;; Defined at:
  2027 ;;		line 1 in file "applicationControl.h"
  2028 ;; Parameters:    Size  Location     Type
  2029 ;;  ModuleNameSt    1    wreg     PTR unsigned char 
  2030 ;;		 -> NULL(0), 
  2031 ;;  SwitchNumber    1   14[BANK0 ] PTR unsigned char 
  2032 ;;		 -> NULL(0), 
  2033 ;;  Acknowledgem    1   15[BANK0 ] PTR unsigned char 
  2034 ;;		 -> NULL(0), 
  2035 ;;  SwitchStatus    1   16[BANK0 ] PTR unsigned char 
  2036 ;;		 -> NULL(0), 
  2037 ;;  RedColorInte    1   17[BANK0 ] PTR unsigned char 
  2038 ;;		 -> NULL(0), 
  2039 ;;  GreenColorIn    1   18[BANK0 ] PTR unsigned char 
  2040 ;;		 -> NULL(0), 
  2041 ;;  BlueColorInt    1   19[BANK0 ] PTR unsigned char 
  2042 ;;		 -> NULL(0), 
  2043 ;;  ChildLockStr    1   20[BANK0 ] PTR unsigned char 
  2044 ;;		 -> NULL(0), 
  2045 ;;  Finalframebi    1   21[BANK0 ] PTR unsigned char 
  2046 ;;		 -> NULL(0), 
  2047 ;; Auto vars:     Size  Location     Type
  2048 ;;  ModuleNameSt    1   35[BANK0 ] PTR unsigned char 
  2049 ;;		 -> NULL(0), 
  2050 ;;  i               2   40[BANK0 ] int 
  2051 ;;  IntergerSwit    2   38[BANK0 ] int 
  2052 ;;  IntegerSwitc    2   36[BANK0 ] int 
  2053 ;;  IntegerFinal    2   32[BANK0 ] int 
  2054 ;;  IntegerChild    2   30[BANK0 ] int 
  2055 ;;  IntegerBlueC    2   27[BANK0 ] int 
  2056 ;;  IntegerGreen    2   25[BANK0 ] int 
  2057 ;;  IntergerRedC    2   23[BANK0 ] int 
  2058 ;;  charchildLoc    1   34[BANK0 ] unsigned char 
  2059 ;;  charSwitchSt    1   29[BANK0 ] unsigned char 
  2060 ;; Return value:  Size  Location     Type
  2061 ;;                  1    wreg      void 
  2062 ;; Registers used:
  2063 ;;		wreg, fsr0l, fsr0h, fsr1l, fsr1h, status,2, status,0, pclath, cstack
  2064 ;; Tracked objects:
  2065 ;;		On entry : 0/0
  2066 ;;		On exit  : 0/0
  2067 ;;		Unchanged: 0/0
  2068 ;; Data sizes:     COMMON   BANK0   BANK1   BANK2   BANK3   BANK4   BANK5   BANK6   BANK7   BANK8   BANK9
  2069 ;;      Params:         0       8       0       0       0       0       0       0       0       0       0
  2070 ;;      Locals:         0      19       0       0       0       0       0       0       0       0       0
  2071 ;;      Temps:          0       1       0       0       0       0       0       0       0       0       0
  2072 ;;      Totals:         0      28       0       0       0       0       0       0       0       0       0
  2073 ;;Total ram usage:       28 bytes
  2074 ;; Hardware stack levels used:    1
  2075 ;; Hardware stack levels required when called:    4
  2076 ;; This function calls:
  2077 ;;		_atoi
  2078 ;;		_sendAcknowledgment
  2079 ;;		_strcat
  2080 ;;		_strcpy
  2081 ;; This function is called by:
  2082 ;;		_main
  2083 ;; This function uses a non-reentrant model
  2084 ;;
  2085                           
  2086                           
  2087                           ;psect for function _applicationControl
  2088  00D3                     _applicationControl:	
  2089                           
  2090                           ;incstack = 0
  2091                           ; Regs used in _applicationControl: [wreg-fsr1h+status,2+status,0+pclath+cstack]
  2092                           ;applicationControl@ModuleNameString stored from wreg
  2093  00D3  0020               	movlb	0	; select bank0
  2094  00D4  00C3               	movwf	applicationControl@ModuleNameString
  2095                           
  2096                           ;applicationControl.h: 4: int IntegerSwitchNumber=0;
  2097  00D5  01C4               	clrf	applicationControl@IntegerSwitchNumber
  2098  00D6  01C5               	clrf	applicationControl@IntegerSwitchNumber+1
  2099                           
  2100                           ;applicationControl.h: 5: int IntergerSwitchStatus = 0;
  2101  00D7  01C6               	clrf	applicationControl@IntergerSwitchStatus
  2102  00D8  01C7               	clrf	applicationControl@IntergerSwitchStatus+1
  2103                           
  2104                           ;applicationControl.h: 6: int IntergerRedColorIntensity = 0;
  2105  00D9  01B7               	clrf	applicationControl@IntergerRedColorIntensity
  2106  00DA  01B8               	clrf	applicationControl@IntergerRedColorIntensity+1
  2107                           
  2108                           ;applicationControl.h: 7: int IntegerGreenColorIntensity = 0;
  2109  00DB  01B9               	clrf	applicationControl@IntegerGreenColorIntensity
  2110  00DC  01BA               	clrf	applicationControl@IntegerGreenColorIntensity+1
  2111                           
  2112                           ;applicationControl.h: 8: int IntegerBlueColorIntensity = 0;
  2113  00DD  01BB               	clrf	applicationControl@IntegerBlueColorIntensity
  2114  00DE  01BC               	clrf	applicationControl@IntegerBlueColorIntensity+1
  2115                           
  2116                           ;applicationControl.h: 9: int IntegerChildLock = 0;
  2117  00DF  01BE               	clrf	applicationControl@IntegerChildLock
  2118  00E0  01BF               	clrf	applicationControl@IntegerChildLock+1
  2119                           
  2120                           ;applicationControl.h: 10: int IntegerFinalframebit = 0;
  2121  00E1  01C0               	clrf	applicationControl@IntegerFinalframebit
  2122  00E2  01C1               	clrf	applicationControl@IntegerFinalframebit+1
  2123                           
  2124                           ;applicationControl.h: 11: char charchildLock = '0';
  2125  00E3  3030               	movlw	48
  2126  00E4  00B6               	movwf	??_applicationControl
  2127  00E5  0836               	movf	??_applicationControl,w
  2128  00E6  00C2               	movwf	applicationControl@charchildLock
  2129                           
  2130                           ;applicationControl.h: 12: char charSwitchState = '0';
  2131  00E7  3030               	movlw	48
  2132  00E8  00B6               	movwf	??_applicationControl
  2133  00E9  0836               	movf	??_applicationControl,w
  2134  00EA  00BD               	movwf	applicationControl@charSwitchState
  2135                           
  2136                           ;applicationControl.h: 13: sendAcknowledgment("APP");
  2137  00EB  300C               	movlw	low (STR_1| (0+32768))
  2138  00EC  00A0               	movwf	sendAcknowledgment@currentStateBuffer
  2139  00ED  3090               	movlw	high (STR_1| (0+32768))
  2140  00EE  00A1               	movwf	sendAcknowledgment@currentStateBuffer+1
  2141  00EF  3186  268A  3180   	fcall	_sendAcknowledgment
  2142                           
  2143                           ;applicationControl.h: 17: int i=0;
  2144  00F2  0020               	movlb	0	; select bank0
  2145  00F3  01C8               	clrf	applicationControl@i
  2146  00F4  01C9               	clrf	applicationControl@i+1
  2147                           
  2148                           ;applicationControl.h: 18: for(i=0;i<3;i++)
  2149  00F5  01C8               	clrf	applicationControl@i
  2150  00F6  01C9               	clrf	applicationControl@i+1
  2151  00F7  0849               	movf	applicationControl@i+1,w
  2152  00F8  3A80               	xorlw	128
  2153  00F9  00B6               	movwf	??_applicationControl
  2154  00FA  3080               	movlw	128
  2155  00FB  0236               	subwf	??_applicationControl,w
  2156  00FC  1D03               	skipz
  2157  00FD  2900               	goto	u1905
  2158  00FE  3003               	movlw	3
  2159  00FF  0248               	subwf	applicationControl@i,w
  2160  0100                     u1905:	
  2161  0100  1803               	btfsc	3,0
  2162  0101  2921               	goto	l2011
  2163  0102                     l2003:	
  2164                           
  2165                           ;applicationControl.h: 19: {
  2166                           ;applicationControl.h: 20: ModuleNameBuffer[i]=*ModuleNameString;
  2167  0102  0020               	movlb	0	; select bank0
  2168  0103  0843               	movf	applicationControl@ModuleNameString,w
  2169  0104  0086               	movwf	6
  2170  0105  0187               	clrf	7
  2171  0106  0801               	movf	1,w
  2172  0107  00B6               	movwf	??_applicationControl
  2173  0108  0848               	movf	applicationControl@i,w
  2174  0109  3EDA               	addlw	(low (_ModuleNameBuffer| 0))& (0+255)
  2175  010A  0086               	movwf	6
  2176  010B  0187               	clrf	7
  2177  010C  0836               	movf	??_applicationControl,w
  2178  010D  0081               	movwf	1
  2179                           
  2180                           ;applicationControl.h: 21: *ModuleNameString++;
  2181  010E  3001               	movlw	1
  2182  010F  00B6               	movwf	??_applicationControl
  2183  0110  0836               	movf	??_applicationControl,w
  2184  0111  07C3               	addwf	applicationControl@ModuleNameString,f
  2185  0112  3001               	movlw	1
  2186  0113  07C8               	addwf	applicationControl@i,f
  2187  0114  3000               	movlw	0
  2188  0115  3DC9               	addwfc	applicationControl@i+1,f
  2189  0116  0849               	movf	applicationControl@i+1,w
  2190  0117  3A80               	xorlw	128
  2191  0118  00B6               	movwf	??_applicationControl
  2192  0119  3080               	movlw	128
  2193  011A  0236               	subwf	??_applicationControl,w
  2194  011B  1D03               	skipz
  2195  011C  291F               	goto	u1915
  2196  011D  3003               	movlw	3
  2197  011E  0248               	subwf	applicationControl@i,w
  2198  011F                     u1915:	
  2199  011F  1C03               	skipc
  2200  0120  2902               	goto	l2003
  2201  0121                     l2011:	
  2202                           
  2203                           ;applicationControl.h: 22: }
  2204                           ;applicationControl.h: 25: strcpy(sendFinalBufferToGAteway,ModuleNameBuffer);
  2205  0121  30DA               	movlw	(low (_ModuleNameBuffer| 0))& (0+255)
  2206  0122  0020               	movlb	0	; select bank0
  2207  0123  00B6               	movwf	??_applicationControl
  2208  0124  0836               	movf	??_applicationControl,w
  2209  0125  00A0               	movwf	strcpy@from
  2210  0126  3020               	movlw	(low (_sendFinalBufferToGAteway| (0+256)))& (0+255)
  2211  0127  3187  279B  3180   	fcall	_strcpy
  2212                           
  2213                           ;applicationControl.h: 26: strcat(sendFinalBufferToGAteway,".");
  2214  012A  301B               	movlw	low (STR_2| (0+32768))
  2215  012B  0020               	movlb	0	; select bank0
  2216  012C  00A0               	movwf	strcat@from
  2217  012D  3090               	movlw	high (STR_2| (0+32768))
  2218  012E  00A1               	movwf	strcat@from+1
  2219  012F  3020               	movlw	(low (_sendFinalBufferToGAteway| (0+256)))& (0+255)
  2220  0130  3186  2645  3180   	fcall	_strcat
  2221                           
  2222                           ;applicationControl.h: 31: i=0;
  2223  0133  0020               	movlb	0	; select bank0
  2224  0134  01C8               	clrf	applicationControl@i
  2225  0135  01C9               	clrf	applicationControl@i+1
  2226                           
  2227                           ;applicationControl.h: 32: for(i=0;i<2;i++)
  2228  0136  01C8               	clrf	applicationControl@i
  2229  0137  01C9               	clrf	applicationControl@i+1
  2230  0138  0849               	movf	applicationControl@i+1,w
  2231  0139  3A80               	xorlw	128
  2232  013A  00B6               	movwf	??_applicationControl
  2233  013B  3080               	movlw	128
  2234  013C  0236               	subwf	??_applicationControl,w
  2235  013D  1D03               	skipz
  2236  013E  2941               	goto	u1925
  2237  013F  3002               	movlw	2
  2238  0140  0248               	subwf	applicationControl@i,w
  2239  0141                     u1925:	
  2240  0141  1803               	btfsc	3,0
  2241  0142  2962               	goto	l2029
  2242  0143                     l2021:	
  2243                           
  2244                           ;applicationControl.h: 33: {
  2245                           ;applicationControl.h: 34: SwitchNumberBuffer[i]=*SwitchNumberString;
  2246  0143  0020               	movlb	0	; select bank0
  2247  0144  082E               	movf	applicationControl@SwitchNumberString,w
  2248  0145  0086               	movwf	6
  2249  0146  0187               	clrf	7
  2250  0147  0801               	movf	1,w
  2251  0148  00B6               	movwf	??_applicationControl
  2252  0149  0848               	movf	applicationControl@i,w
  2253  014A  3E69               	addlw	(low (_SwitchNumberBuffer| 0))& (0+255)
  2254  014B  0086               	movwf	6
  2255  014C  0187               	clrf	7
  2256  014D  0836               	movf	??_applicationControl,w
  2257  014E  0081               	movwf	1
  2258                           
  2259                           ;applicationControl.h: 35: *SwitchNumberString++;
  2260  014F  3001               	movlw	1
  2261  0150  00B6               	movwf	??_applicationControl
  2262  0151  0836               	movf	??_applicationControl,w
  2263  0152  07AE               	addwf	applicationControl@SwitchNumberString,f
  2264  0153  3001               	movlw	1
  2265  0154  07C8               	addwf	applicationControl@i,f
  2266  0155  3000               	movlw	0
  2267  0156  3DC9               	addwfc	applicationControl@i+1,f
  2268  0157  0849               	movf	applicationControl@i+1,w
  2269  0158  3A80               	xorlw	128
  2270  0159  00B6               	movwf	??_applicationControl
  2271  015A  3080               	movlw	128
  2272  015B  0236               	subwf	??_applicationControl,w
  2273  015C  1D03               	skipz
  2274  015D  2960               	goto	u1935
  2275  015E  3002               	movlw	2
  2276  015F  0248               	subwf	applicationControl@i,w
  2277  0160                     u1935:	
  2278  0160  1C03               	skipc
  2279  0161  2943               	goto	l2021
  2280  0162                     l2029:	
  2281                           
  2282                           ;applicationControl.h: 36: }
  2283                           ;applicationControl.h: 39: strcat(sendFinalBufferToGAteway,SwitchNumberBuffer);
  2284  0162  3069               	movlw	low _SwitchNumberBuffer
  2285  0163  0020               	movlb	0	; select bank0
  2286  0164  00A0               	movwf	strcat@from
  2287  0165  3000               	movlw	high _SwitchNumberBuffer
  2288  0166  00A1               	movwf	strcat@from+1
  2289  0167  3020               	movlw	(low (_sendFinalBufferToGAteway| (0+256)))& (0+255)
  2290  0168  3186  2645  3180   	fcall	_strcat
  2291                           
  2292                           ;applicationControl.h: 40: strcat(sendFinalBufferToGAteway,".");
  2293  016B  301B               	movlw	low (STR_2| (0+32768))
  2294  016C  0020               	movlb	0	; select bank0
  2295  016D  00A0               	movwf	strcat@from
  2296  016E  3090               	movlw	high (STR_2| (0+32768))
  2297  016F  00A1               	movwf	strcat@from+1
  2298  0170  3020               	movlw	(low (_sendFinalBufferToGAteway| (0+256)))& (0+255)
  2299  0171  3186  2645  3180   	fcall	_strcat
  2300                           
  2301                           ;applicationControl.h: 52: strcat(sendFinalBufferToGAteway,"ACTACK");
  2302  0174  3000               	movlw	low (STR_4| (0+32768))
  2303  0175  0020               	movlb	0	; select bank0
  2304  0176  00A0               	movwf	strcat@from
  2305  0177  3090               	movlw	high (STR_4| (0+32768))
  2306  0178  00A1               	movwf	strcat@from+1
  2307  0179  3020               	movlw	(low (_sendFinalBufferToGAteway| (0+256)))& (0+255)
  2308  017A  3186  2645  3180   	fcall	_strcat
  2309                           
  2310                           ;applicationControl.h: 53: strcat(sendFinalBufferToGAteway,".");
  2311  017D  301B               	movlw	low (STR_2| (0+32768))
  2312  017E  0020               	movlb	0	; select bank0
  2313  017F  00A0               	movwf	strcat@from
  2314  0180  3090               	movlw	high (STR_2| (0+32768))
  2315  0181  00A1               	movwf	strcat@from+1
  2316  0182  3020               	movlw	(low (_sendFinalBufferToGAteway| (0+256)))& (0+255)
  2317  0183  3186  2645  3180   	fcall	_strcat
  2318                           
  2319                           ;applicationControl.h: 57: i=0;
  2320  0186  0020               	movlb	0	; select bank0
  2321  0187  01C8               	clrf	applicationControl@i
  2322  0188  01C9               	clrf	applicationControl@i+1
  2323                           
  2324                           ;applicationControl.h: 58: for(i=0;i<1;i++)
  2325  0189  01C8               	clrf	applicationControl@i
  2326  018A  01C9               	clrf	applicationControl@i+1
  2327  018B  0849               	movf	applicationControl@i+1,w
  2328  018C  3A80               	xorlw	128
  2329  018D  00B6               	movwf	??_applicationControl
  2330  018E  3080               	movlw	128
  2331  018F  0236               	subwf	??_applicationControl,w
  2332  0190  1D03               	skipz
  2333  0191  2994               	goto	u1945
  2334  0192  3001               	movlw	1
  2335  0193  0248               	subwf	applicationControl@i,w
  2336  0194                     u1945:	
  2337  0194  1803               	btfsc	3,0
  2338  0195  29B5               	goto	l2047
  2339  0196                     l2039:	
  2340                           
  2341                           ;applicationControl.h: 59: {
  2342                           ;applicationControl.h: 60: SwitchStatusBuffer[i]=*SwitchStatusString;
  2343  0196  0020               	movlb	0	; select bank0
  2344  0197  0830               	movf	applicationControl@SwitchStatusString,w
  2345  0198  0086               	movwf	6
  2346  0199  0187               	clrf	7
  2347  019A  0801               	movf	1,w
  2348  019B  00B6               	movwf	??_applicationControl
  2349  019C  0848               	movf	applicationControl@i,w
  2350  019D  3E6D               	addlw	(low (_SwitchStatusBuffer| 0))& (0+255)
  2351  019E  0086               	movwf	6
  2352  019F  0187               	clrf	7
  2353  01A0  0836               	movf	??_applicationControl,w
  2354  01A1  0081               	movwf	1
  2355                           
  2356                           ;applicationControl.h: 61: *SwitchStatusString++;
  2357  01A2  3001               	movlw	1
  2358  01A3  00B6               	movwf	??_applicationControl
  2359  01A4  0836               	movf	??_applicationControl,w
  2360  01A5  07B0               	addwf	applicationControl@SwitchStatusString,f
  2361  01A6  3001               	movlw	1
  2362  01A7  07C8               	addwf	applicationControl@i,f
  2363  01A8  3000               	movlw	0
  2364  01A9  3DC9               	addwfc	applicationControl@i+1,f
  2365  01AA  0849               	movf	applicationControl@i+1,w
  2366  01AB  3A80               	xorlw	128
  2367  01AC  00B6               	movwf	??_applicationControl
  2368  01AD  3080               	movlw	128
  2369  01AE  0236               	subwf	??_applicationControl,w
  2370  01AF  1D03               	skipz
  2371  01B0  29B3               	goto	u1955
  2372  01B1  3001               	movlw	1
  2373  01B2  0248               	subwf	applicationControl@i,w
  2374  01B3                     u1955:	
  2375  01B3  1C03               	skipc
  2376  01B4  2996               	goto	l2039
  2377  01B5                     l2047:	
  2378                           
  2379                           ;applicationControl.h: 62: }
  2380                           ;applicationControl.h: 65: strcat(sendFinalBufferToGAteway,SwitchStatusBuffer);
  2381  01B5  306D               	movlw	low _SwitchStatusBuffer
  2382  01B6  0020               	movlb	0	; select bank0
  2383  01B7  00A0               	movwf	strcat@from
  2384  01B8  3000               	movlw	high _SwitchStatusBuffer
  2385  01B9  00A1               	movwf	strcat@from+1
  2386  01BA  3020               	movlw	(low (_sendFinalBufferToGAteway| (0+256)))& (0+255)
  2387  01BB  3186  2645  3180   	fcall	_strcat
  2388                           
  2389                           ;applicationControl.h: 66: strcat(sendFinalBufferToGAteway,".");
  2390  01BE  301B               	movlw	low (STR_2| (0+32768))
  2391  01BF  0020               	movlb	0	; select bank0
  2392  01C0  00A0               	movwf	strcat@from
  2393  01C1  3090               	movlw	high (STR_2| (0+32768))
  2394  01C2  00A1               	movwf	strcat@from+1
  2395  01C3  3020               	movlw	(low (_sendFinalBufferToGAteway| (0+256)))& (0+255)
  2396  01C4  3186  2645  3180   	fcall	_strcat
  2397                           
  2398                           ;applicationControl.h: 70: i=0;
  2399  01C7  0020               	movlb	0	; select bank0
  2400  01C8  01C8               	clrf	applicationControl@i
  2401  01C9  01C9               	clrf	applicationControl@i+1
  2402                           
  2403                           ;applicationControl.h: 71: for(i=0;i<3;i++)
  2404  01CA  01C8               	clrf	applicationControl@i
  2405  01CB  01C9               	clrf	applicationControl@i+1
  2406  01CC  0849               	movf	applicationControl@i+1,w
  2407  01CD  3A80               	xorlw	128
  2408  01CE  00B6               	movwf	??_applicationControl
  2409  01CF  3080               	movlw	128
  2410  01D0  0236               	subwf	??_applicationControl,w
  2411  01D1  1D03               	skipz
  2412  01D2  29D5               	goto	u1965
  2413  01D3  3003               	movlw	3
  2414  01D4  0248               	subwf	applicationControl@i,w
  2415  01D5                     u1965:	
  2416  01D5  1803               	btfsc	3,0
  2417  01D6  29F6               	goto	l2065
  2418  01D7                     l2057:	
  2419                           
  2420                           ;applicationControl.h: 72: {
  2421                           ;applicationControl.h: 73: RedColorIntensityBuffer[i]=*RedColorIntensityString;
  2422  01D7  0020               	movlb	0	; select bank0
  2423  01D8  0831               	movf	applicationControl@RedColorIntensityString,w
  2424  01D9  0086               	movwf	6
  2425  01DA  0187               	clrf	7
  2426  01DB  0801               	movf	1,w
  2427  01DC  00B6               	movwf	??_applicationControl
  2428  01DD  0848               	movf	applicationControl@i,w
  2429  01DE  3ED7               	addlw	(low (_RedColorIntensityBuffer| 0))& (0+255)
  2430  01DF  0086               	movwf	6
  2431  01E0  0187               	clrf	7
  2432  01E1  0836               	movf	??_applicationControl,w
  2433  01E2  0081               	movwf	1
  2434                           
  2435                           ;applicationControl.h: 74: *RedColorIntensityString++;
  2436  01E3  3001               	movlw	1
  2437  01E4  00B6               	movwf	??_applicationControl
  2438  01E5  0836               	movf	??_applicationControl,w
  2439  01E6  07B1               	addwf	applicationControl@RedColorIntensityString,f
  2440  01E7  3001               	movlw	1
  2441  01E8  07C8               	addwf	applicationControl@i,f
  2442  01E9  3000               	movlw	0
  2443  01EA  3DC9               	addwfc	applicationControl@i+1,f
  2444  01EB  0849               	movf	applicationControl@i+1,w
  2445  01EC  3A80               	xorlw	128
  2446  01ED  00B6               	movwf	??_applicationControl
  2447  01EE  3080               	movlw	128
  2448  01EF  0236               	subwf	??_applicationControl,w
  2449  01F0  1D03               	skipz
  2450  01F1  29F4               	goto	u1975
  2451  01F2  3003               	movlw	3
  2452  01F3  0248               	subwf	applicationControl@i,w
  2453  01F4                     u1975:	
  2454  01F4  1C03               	skipc
  2455  01F5  29D7               	goto	l2057
  2456  01F6                     l2065:	
  2457                           
  2458                           ;applicationControl.h: 75: }
  2459                           ;applicationControl.h: 78: strcat(sendFinalBufferToGAteway,RedColorIntensityBuffer);
  2460  01F6  30D7               	movlw	low _RedColorIntensityBuffer
  2461  01F7  0020               	movlb	0	; select bank0
  2462  01F8  00A0               	movwf	strcat@from
  2463  01F9  3000               	movlw	high _RedColorIntensityBuffer
  2464  01FA  00A1               	movwf	strcat@from+1
  2465  01FB  3020               	movlw	(low (_sendFinalBufferToGAteway| (0+256)))& (0+255)
  2466  01FC  3186  2645  3180   	fcall	_strcat
  2467                           
  2468                           ;applicationControl.h: 79: strcat(sendFinalBufferToGAteway,".");
  2469  01FF  301B               	movlw	low (STR_2| (0+32768))
  2470  0200  0020               	movlb	0	; select bank0
  2471  0201  00A0               	movwf	strcat@from
  2472  0202  3090               	movlw	high (STR_2| (0+32768))
  2473  0203  00A1               	movwf	strcat@from+1
  2474  0204  3020               	movlw	(low (_sendFinalBufferToGAteway| (0+256)))& (0+255)
  2475  0205  3186  2645  3180   	fcall	_strcat
  2476                           
  2477                           ;applicationControl.h: 83: i=0;
  2478  0208  0020               	movlb	0	; select bank0
  2479  0209  01C8               	clrf	applicationControl@i
  2480  020A  01C9               	clrf	applicationControl@i+1
  2481                           
  2482                           ;applicationControl.h: 84: for(i=0;i<3;i++)
  2483  020B  01C8               	clrf	applicationControl@i
  2484  020C  01C9               	clrf	applicationControl@i+1
  2485  020D  0849               	movf	applicationControl@i+1,w
  2486  020E  3A80               	xorlw	128
  2487  020F  00B6               	movwf	??_applicationControl
  2488  0210  3080               	movlw	128
  2489  0211  0236               	subwf	??_applicationControl,w
  2490  0212  1D03               	skipz
  2491  0213  2A16               	goto	u1985
  2492  0214  3003               	movlw	3
  2493  0215  0248               	subwf	applicationControl@i,w
  2494  0216                     u1985:	
  2495  0216  1803               	btfsc	3,0
  2496  0217  2A37               	goto	l2083
  2497  0218                     l2075:	
  2498                           
  2499                           ;applicationControl.h: 85: {
  2500                           ;applicationControl.h: 86: GreenColorIntensityBuffer[i]=*GreenColorIntensityString;
  2501  0218  0020               	movlb	0	; select bank0
  2502  0219  0832               	movf	applicationControl@GreenColorIntensityString,w
  2503  021A  0086               	movwf	6
  2504  021B  0187               	clrf	7
  2505  021C  0801               	movf	1,w
  2506  021D  00B6               	movwf	??_applicationControl
  2507  021E  0848               	movf	applicationControl@i,w
  2508  021F  3ED4               	addlw	(low (_GreenColorIntensityBuffer| 0))& (0+255)
  2509  0220  0086               	movwf	6
  2510  0221  0187               	clrf	7
  2511  0222  0836               	movf	??_applicationControl,w
  2512  0223  0081               	movwf	1
  2513                           
  2514                           ;applicationControl.h: 87: *GreenColorIntensityString++;
  2515  0224  3001               	movlw	1
  2516  0225  00B6               	movwf	??_applicationControl
  2517  0226  0836               	movf	??_applicationControl,w
  2518  0227  07B2               	addwf	applicationControl@GreenColorIntensityString,f
  2519  0228  3001               	movlw	1
  2520  0229  07C8               	addwf	applicationControl@i,f
  2521  022A  3000               	movlw	0
  2522  022B  3DC9               	addwfc	applicationControl@i+1,f
  2523  022C  0849               	movf	applicationControl@i+1,w
  2524  022D  3A80               	xorlw	128
  2525  022E  00B6               	movwf	??_applicationControl
  2526  022F  3080               	movlw	128
  2527  0230  0236               	subwf	??_applicationControl,w
  2528  0231  1D03               	skipz
  2529  0232  2A35               	goto	u1995
  2530  0233  3003               	movlw	3
  2531  0234  0248               	subwf	applicationControl@i,w
  2532  0235                     u1995:	
  2533  0235  1C03               	skipc
  2534  0236  2A18               	goto	l2075
  2535  0237                     l2083:	
  2536                           
  2537                           ;applicationControl.h: 88: }
  2538                           ;applicationControl.h: 91: strcat(sendFinalBufferToGAteway,GreenColorIntensityBuffer);
  2539  0237  30D4               	movlw	low _GreenColorIntensityBuffer
  2540  0238  0020               	movlb	0	; select bank0
  2541  0239  00A0               	movwf	strcat@from
  2542  023A  3000               	movlw	high _GreenColorIntensityBuffer
  2543  023B  00A1               	movwf	strcat@from+1
  2544  023C  3020               	movlw	(low (_sendFinalBufferToGAteway| (0+256)))& (0+255)
  2545  023D  3186  2645  3180   	fcall	_strcat
  2546                           
  2547                           ;applicationControl.h: 92: strcat(sendFinalBufferToGAteway,".");
  2548  0240  301B               	movlw	low (STR_2| (0+32768))
  2549  0241  0020               	movlb	0	; select bank0
  2550  0242  00A0               	movwf	strcat@from
  2551  0243  3090               	movlw	high (STR_2| (0+32768))
  2552  0244  00A1               	movwf	strcat@from+1
  2553  0245  3020               	movlw	(low (_sendFinalBufferToGAteway| (0+256)))& (0+255)
  2554  0246  3186  2645  3180   	fcall	_strcat
  2555                           
  2556                           ;applicationControl.h: 96: i=0;
  2557  0249  0020               	movlb	0	; select bank0
  2558  024A  01C8               	clrf	applicationControl@i
  2559  024B  01C9               	clrf	applicationControl@i+1
  2560                           
  2561                           ;applicationControl.h: 97: for(i=0;i<3;i++)
  2562  024C  01C8               	clrf	applicationControl@i
  2563  024D  01C9               	clrf	applicationControl@i+1
  2564  024E  0849               	movf	applicationControl@i+1,w
  2565  024F  3A80               	xorlw	128
  2566  0250  00B6               	movwf	??_applicationControl
  2567  0251  3080               	movlw	128
  2568  0252  0236               	subwf	??_applicationControl,w
  2569  0253  1D03               	skipz
  2570  0254  2A57               	goto	u2005
  2571  0255  3003               	movlw	3
  2572  0256  0248               	subwf	applicationControl@i,w
  2573  0257                     u2005:	
  2574  0257  1803               	btfsc	3,0
  2575  0258  2A76               	goto	l2101
  2576  0259                     l2093:	
  2577                           
  2578                           ;applicationControl.h: 98: {
  2579                           ;applicationControl.h: 99: BlueColorIntensityBuffer[i]=*BlueColorIntensityBuffer;
  2580  0259  0021               	movlb	1	; select bank1
  2581  025A  0851               	movf	_BlueColorIntensityBuffer^(0+128),w
  2582  025B  0020               	movlb	0	; select bank0
  2583  025C  00B6               	movwf	??_applicationControl
  2584  025D  0848               	movf	applicationControl@i,w
  2585  025E  3ED1               	addlw	(low (_BlueColorIntensityBuffer| 0))& (0+255)
  2586  025F  0086               	movwf	6
  2587  0260  0187               	clrf	7
  2588  0261  0836               	movf	??_applicationControl,w
  2589  0262  0081               	movwf	1
  2590                           
  2591                           ;applicationControl.h: 100: *BlueColorIntensityString++;
  2592  0263  3001               	movlw	1
  2593  0264  00B6               	movwf	??_applicationControl
  2594  0265  0836               	movf	??_applicationControl,w
  2595  0266  07B3               	addwf	applicationControl@BlueColorIntensityString,f
  2596  0267  3001               	movlw	1
  2597  0268  07C8               	addwf	applicationControl@i,f
  2598  0269  3000               	movlw	0
  2599  026A  3DC9               	addwfc	applicationControl@i+1,f
  2600  026B  0849               	movf	applicationControl@i+1,w
  2601  026C  3A80               	xorlw	128
  2602  026D  00B6               	movwf	??_applicationControl
  2603  026E  3080               	movlw	128
  2604  026F  0236               	subwf	??_applicationControl,w
  2605  0270  1D03               	skipz
  2606  0271  2A74               	goto	u2015
  2607  0272  3003               	movlw	3
  2608  0273  0248               	subwf	applicationControl@i,w
  2609  0274                     u2015:	
  2610  0274  1C03               	skipc
  2611  0275  2A59               	goto	l2093
  2612  0276                     l2101:	
  2613                           
  2614                           ;applicationControl.h: 101: }
  2615                           ;applicationControl.h: 104: strcat(sendFinalBufferToGAteway,BlueColorIntensityBuffer);
  2616  0276  30D1               	movlw	low _BlueColorIntensityBuffer
  2617  0277  0020               	movlb	0	; select bank0
  2618  0278  00A0               	movwf	strcat@from
  2619  0279  3000               	movlw	high _BlueColorIntensityBuffer
  2620  027A  00A1               	movwf	strcat@from+1
  2621  027B  3020               	movlw	(low (_sendFinalBufferToGAteway| (0+256)))& (0+255)
  2622  027C  3186  2645  3180   	fcall	_strcat
  2623                           
  2624                           ;applicationControl.h: 105: strcat(sendFinalBufferToGAteway,".");
  2625  027F  301B               	movlw	low (STR_2| (0+32768))
  2626  0280  0020               	movlb	0	; select bank0
  2627  0281  00A0               	movwf	strcat@from
  2628  0282  3090               	movlw	high (STR_2| (0+32768))
  2629  0283  00A1               	movwf	strcat@from+1
  2630  0284  3020               	movlw	(low (_sendFinalBufferToGAteway| (0+256)))& (0+255)
  2631  0285  3186  2645  3180   	fcall	_strcat
  2632                           
  2633                           ;applicationControl.h: 109: i=0;
  2634  0288  0020               	movlb	0	; select bank0
  2635  0289  01C8               	clrf	applicationControl@i
  2636  028A  01C9               	clrf	applicationControl@i+1
  2637                           
  2638                           ;applicationControl.h: 110: for(i=0;i<1;i++)
  2639  028B  01C8               	clrf	applicationControl@i
  2640  028C  01C9               	clrf	applicationControl@i+1
  2641  028D  0849               	movf	applicationControl@i+1,w
  2642  028E  3A80               	xorlw	128
  2643  028F  00B6               	movwf	??_applicationControl
  2644  0290  3080               	movlw	128
  2645  0291  0236               	subwf	??_applicationControl,w
  2646  0292  1D03               	skipz
  2647  0293  2A96               	goto	u2025
  2648  0294  3001               	movlw	1
  2649  0295  0248               	subwf	applicationControl@i,w
  2650  0296                     u2025:	
  2651  0296  1803               	btfsc	3,0
  2652  0297  2AB7               	goto	l2119
  2653  0298                     l2111:	
  2654                           
  2655                           ;applicationControl.h: 111: {
  2656                           ;applicationControl.h: 112: ChildLockBuffer[i]=*ChildLockString;
  2657  0298  0020               	movlb	0	; select bank0
  2658  0299  0834               	movf	applicationControl@ChildLockString,w
  2659  029A  0086               	movwf	6
  2660  029B  0187               	clrf	7
  2661  029C  0801               	movf	1,w
  2662  029D  00B6               	movwf	??_applicationControl
  2663  029E  0848               	movf	applicationControl@i,w
  2664  029F  3E6C               	addlw	(low (_ChildLockBuffer| 0))& (0+255)
  2665  02A0  0086               	movwf	6
  2666  02A1  0187               	clrf	7
  2667  02A2  0836               	movf	??_applicationControl,w
  2668  02A3  0081               	movwf	1
  2669                           
  2670                           ;applicationControl.h: 113: *ChildLockString++;
  2671  02A4  3001               	movlw	1
  2672  02A5  00B6               	movwf	??_applicationControl
  2673  02A6  0836               	movf	??_applicationControl,w
  2674  02A7  07B4               	addwf	applicationControl@ChildLockString,f
  2675  02A8  3001               	movlw	1
  2676  02A9  07C8               	addwf	applicationControl@i,f
  2677  02AA  3000               	movlw	0
  2678  02AB  3DC9               	addwfc	applicationControl@i+1,f
  2679  02AC  0849               	movf	applicationControl@i+1,w
  2680  02AD  3A80               	xorlw	128
  2681  02AE  00B6               	movwf	??_applicationControl
  2682  02AF  3080               	movlw	128
  2683  02B0  0236               	subwf	??_applicationControl,w
  2684  02B1  1D03               	skipz
  2685  02B2  2AB5               	goto	u2035
  2686  02B3  3001               	movlw	1
  2687  02B4  0248               	subwf	applicationControl@i,w
  2688  02B5                     u2035:	
  2689  02B5  1C03               	skipc
  2690  02B6  2A98               	goto	l2111
  2691  02B7                     l2119:	
  2692                           
  2693                           ;applicationControl.h: 114: }
  2694                           ;applicationControl.h: 117: strcat(sendFinalBufferToGAteway,ChildLockBuffer);
  2695  02B7  306C               	movlw	low _ChildLockBuffer
  2696  02B8  0020               	movlb	0	; select bank0
  2697  02B9  00A0               	movwf	strcat@from
  2698  02BA  3000               	movlw	high _ChildLockBuffer
  2699  02BB  00A1               	movwf	strcat@from+1
  2700  02BC  3020               	movlw	(low (_sendFinalBufferToGAteway| (0+256)))& (0+255)
  2701  02BD  3186  2645  3180   	fcall	_strcat
  2702                           
  2703                           ;applicationControl.h: 118: strcat(sendFinalBufferToGAteway,".");
  2704  02C0  301B               	movlw	low (STR_2| (0+32768))
  2705  02C1  0020               	movlb	0	; select bank0
  2706  02C2  00A0               	movwf	strcat@from
  2707  02C3  3090               	movlw	high (STR_2| (0+32768))
  2708  02C4  00A1               	movwf	strcat@from+1
  2709  02C5  3020               	movlw	(low (_sendFinalBufferToGAteway| (0+256)))& (0+255)
  2710  02C6  3186  2645  3180   	fcall	_strcat
  2711                           
  2712                           ;applicationControl.h: 122: i=0;
  2713  02C9  0020               	movlb	0	; select bank0
  2714  02CA  01C8               	clrf	applicationControl@i
  2715  02CB  01C9               	clrf	applicationControl@i+1
  2716                           
  2717                           ;applicationControl.h: 123: for(i=0;i<1;i++)
  2718  02CC  01C8               	clrf	applicationControl@i
  2719  02CD  01C9               	clrf	applicationControl@i+1
  2720  02CE  0849               	movf	applicationControl@i+1,w
  2721  02CF  3A80               	xorlw	128
  2722  02D0  00B6               	movwf	??_applicationControl
  2723  02D1  3080               	movlw	128
  2724  02D2  0236               	subwf	??_applicationControl,w
  2725  02D3  1D03               	skipz
  2726  02D4  2AD7               	goto	u2045
  2727  02D5  3001               	movlw	1
  2728  02D6  0248               	subwf	applicationControl@i,w
  2729  02D7                     u2045:	
  2730  02D7  1803               	btfsc	3,0
  2731  02D8  2AF8               	goto	l2137
  2732  02D9                     l2129:	
  2733                           
  2734                           ;applicationControl.h: 124: {
  2735                           ;applicationControl.h: 125: FinalFramebitBuffer[i]=*FinalframebitString;
  2736  02D9  0020               	movlb	0	; select bank0
  2737  02DA  0835               	movf	applicationControl@FinalframebitString,w
  2738  02DB  0086               	movwf	6
  2739  02DC  0187               	clrf	7
  2740  02DD  0801               	movf	1,w
  2741  02DE  00B6               	movwf	??_applicationControl
  2742  02DF  0848               	movf	applicationControl@i,w
  2743  02E0  3E6B               	addlw	(low (_FinalFramebitBuffer| 0))& (0+255)
  2744  02E1  0086               	movwf	6
  2745  02E2  0187               	clrf	7
  2746  02E3  0836               	movf	??_applicationControl,w
  2747  02E4  0081               	movwf	1
  2748                           
  2749                           ;applicationControl.h: 126: *FinalframebitString++;
  2750  02E5  3001               	movlw	1
  2751  02E6  00B6               	movwf	??_applicationControl
  2752  02E7  0836               	movf	??_applicationControl,w
  2753  02E8  07B5               	addwf	applicationControl@FinalframebitString,f
  2754  02E9  3001               	movlw	1
  2755  02EA  07C8               	addwf	applicationControl@i,f
  2756  02EB  3000               	movlw	0
  2757  02EC  3DC9               	addwfc	applicationControl@i+1,f
  2758  02ED  0849               	movf	applicationControl@i+1,w
  2759  02EE  3A80               	xorlw	128
  2760  02EF  00B6               	movwf	??_applicationControl
  2761  02F0  3080               	movlw	128
  2762  02F1  0236               	subwf	??_applicationControl,w
  2763  02F2  1D03               	skipz
  2764  02F3  2AF6               	goto	u2055
  2765  02F4  3001               	movlw	1
  2766  02F5  0248               	subwf	applicationControl@i,w
  2767  02F6                     u2055:	
  2768  02F6  1C03               	skipc
  2769  02F7  2AD9               	goto	l2129
  2770  02F8                     l2137:	
  2771                           
  2772                           ;applicationControl.h: 127: }
  2773                           ;applicationControl.h: 132: strcat(sendFinalBufferToGAteway,FinalFramebitBuffer);
  2774  02F8  306B               	movlw	low _FinalFramebitBuffer
  2775  02F9  0020               	movlb	0	; select bank0
  2776  02FA  00A0               	movwf	strcat@from
  2777  02FB  3000               	movlw	high _FinalFramebitBuffer
  2778  02FC  00A1               	movwf	strcat@from+1
  2779  02FD  3020               	movlw	(low (_sendFinalBufferToGAteway| (0+256)))& (0+255)
  2780  02FE  3186  2645  3180   	fcall	_strcat
  2781                           
  2782                           ;applicationControl.h: 133: strcat(sendFinalBufferToGAteway,".");
  2783  0301  301B               	movlw	low (STR_2| (0+32768))
  2784  0302  0020               	movlb	0	; select bank0
  2785  0303  00A0               	movwf	strcat@from
  2786  0304  3090               	movlw	high (STR_2| (0+32768))
  2787  0305  00A1               	movwf	strcat@from+1
  2788  0306  3020               	movlw	(low (_sendFinalBufferToGAteway| (0+256)))& (0+255)
  2789  0307  3186  2645  3180   	fcall	_strcat
  2790                           
  2791                           ;applicationControl.h: 134: strcat(sendFinalBufferToGAteway,"|");
  2792  030A  30DC               	movlw	low ((STR_18+25)| (0+32768))
  2793  030B  0020               	movlb	0	; select bank0
  2794  030C  00A0               	movwf	strcat@from
  2795  030D  3086               	movlw	high ((STR_18+25)| (0+32768))
  2796  030E  00A1               	movwf	strcat@from+1
  2797  030F  3020               	movlw	(low (_sendFinalBufferToGAteway| (0+256)))& (0+255)
  2798  0310  3186  2645  3180   	fcall	_strcat
  2799                           
  2800                           ;applicationControl.h: 140: IntegerSwitchNumber = atoi(SwitchNumberString);
  2801  0313  0020               	movlb	0	; select bank0
  2802  0314  082E               	movf	applicationControl@SwitchNumberString,w
  2803  0315  3185  259D  3180   	fcall	_atoi
  2804  0318  0020               	movlb	0	; select bank0
  2805  0319  0827               	movf	?_atoi+1,w
  2806  031A  00C5               	movwf	applicationControl@IntegerSwitchNumber+1
  2807  031B  0826               	movf	?_atoi,w
  2808  031C  00C4               	movwf	applicationControl@IntegerSwitchNumber
  2809                           
  2810                           ;applicationControl.h: 141: IntergerSwitchStatus = atoi(SwitchStatusString);
  2811  031D  0830               	movf	applicationControl@SwitchStatusString,w
  2812  031E  3185  259D  3180   	fcall	_atoi
  2813  0321  0020               	movlb	0	; select bank0
  2814  0322  0827               	movf	?_atoi+1,w
  2815  0323  00C7               	movwf	applicationControl@IntergerSwitchStatus+1
  2816  0324  0826               	movf	?_atoi,w
  2817  0325  00C6               	movwf	applicationControl@IntergerSwitchStatus
  2818                           
  2819                           ;applicationControl.h: 142: IntergerRedColorIntensity = atoi(RedColorIntensityString);
  2820  0326  0831               	movf	applicationControl@RedColorIntensityString,w
  2821  0327  3185  259D  3180   	fcall	_atoi
  2822  032A  0020               	movlb	0	; select bank0
  2823  032B  0827               	movf	?_atoi+1,w
  2824  032C  00B8               	movwf	applicationControl@IntergerRedColorIntensity+1
  2825  032D  0826               	movf	?_atoi,w
  2826  032E  00B7               	movwf	applicationControl@IntergerRedColorIntensity
  2827                           
  2828                           ;applicationControl.h: 143: IntegerBlueColorIntensity = atoi(GreenColorIntensityString);
  2829  032F  0832               	movf	applicationControl@GreenColorIntensityString,w
  2830  0330  3185  259D  3180   	fcall	_atoi
  2831  0333  0020               	movlb	0	; select bank0
  2832  0334  0827               	movf	?_atoi+1,w
  2833  0335  00BC               	movwf	applicationControl@IntegerBlueColorIntensity+1
  2834  0336  0826               	movf	?_atoi,w
  2835  0337  00BB               	movwf	applicationControl@IntegerBlueColorIntensity
  2836                           
  2837                           ;applicationControl.h: 144: IntegerGreenColorIntensity = atoi(GreenColorIntensityString)
      +                          ;
  2838  0338  0832               	movf	applicationControl@GreenColorIntensityString,w
  2839  0339  3185  259D  3180   	fcall	_atoi
  2840  033C  0020               	movlb	0	; select bank0
  2841  033D  0827               	movf	?_atoi+1,w
  2842  033E  00BA               	movwf	applicationControl@IntegerGreenColorIntensity+1
  2843  033F  0826               	movf	?_atoi,w
  2844  0340  00B9               	movwf	applicationControl@IntegerGreenColorIntensity
  2845                           
  2846                           ;applicationControl.h: 145: IntegerChildLock = atoi(ChildLockString);
  2847  0341  0834               	movf	applicationControl@ChildLockString,w
  2848  0342  3185  259D  3180   	fcall	_atoi
  2849  0345  0020               	movlb	0	; select bank0
  2850  0346  0827               	movf	?_atoi+1,w
  2851  0347  00BF               	movwf	applicationControl@IntegerChildLock+1
  2852  0348  0826               	movf	?_atoi,w
  2853  0349  00BE               	movwf	applicationControl@IntegerChildLock
  2854                           
  2855                           ;applicationControl.h: 146: IntegerFinalframebit= atoi(FinalframebitString);
  2856  034A  0835               	movf	applicationControl@FinalframebitString,w
  2857  034B  3185  259D  3180   	fcall	_atoi
  2858  034E  0020               	movlb	0	; select bank0
  2859  034F  0827               	movf	?_atoi+1,w
  2860  0350  00C1               	movwf	applicationControl@IntegerFinalframebit+1
  2861  0351  0826               	movf	?_atoi,w
  2862  0352  00C0               	movwf	applicationControl@IntegerFinalframebit
  2863                           
  2864                           ;applicationControl.h: 148: charchildLock = IntegerChildLock + '0';
  2865  0353  083E               	movf	applicationControl@IntegerChildLock,w
  2866  0354  3E30               	addlw	48
  2867  0355  00B6               	movwf	??_applicationControl
  2868  0356  0836               	movf	??_applicationControl,w
  2869  0357  00C2               	movwf	applicationControl@charchildLock
  2870                           
  2871                           ;applicationControl.h: 149: charSwitchState = IntergerSwitchStatus + '0';
  2872  0358  0846               	movf	applicationControl@IntergerSwitchStatus,w
  2873  0359  3E30               	addlw	48
  2874  035A  00B6               	movwf	??_applicationControl
  2875  035B  0836               	movf	??_applicationControl,w
  2876  035C  00BD               	movwf	applicationControl@charSwitchState
  2877                           
  2878                           ;applicationControl.h: 151: sendAcknowledgment("STS");
  2879  035D  3014               	movlw	low (STR_13| (0+32768))
  2880  035E  00A0               	movwf	sendAcknowledgment@currentStateBuffer
  2881  035F  3090               	movlw	high (STR_13| (0+32768))
  2882  0360  00A1               	movwf	sendAcknowledgment@currentStateBuffer+1
  2883  0361  3186  268A  3180   	fcall	_sendAcknowledgment
  2884                           
  2885                           ;applicationControl.h: 152: TX1REG = '1';
  2886  0364  3031               	movlw	49
  2887  0365  0023               	movlb	3	; select bank3
  2888  0366  009A               	movwf	26	;volatile
  2889                           
  2890                           ;applicationControl.h: 154: parentalLockBuffer[IntegerSwitchNumber] = charchildLock;
  2891  0367  0020               	movlb	0	; select bank0
  2892  0368  0842               	movf	applicationControl@charchildLock,w
  2893  0369  00B6               	movwf	??_applicationControl
  2894  036A  0844               	movf	applicationControl@IntegerSwitchNumber,w
  2895  036B  3EC7               	addlw	(low (_parentalLockBuffer| 0))& (0+255)
  2896  036C  0086               	movwf	6
  2897  036D  0187               	clrf	7
  2898  036E  0836               	movf	??_applicationControl,w
  2899  036F  0081               	movwf	1
  2900                           
  2901                           ;applicationControl.h: 155: copyparentalLockBuffer[IntegerSwitchNumber] = parentalLockBu
      +                          ffer[IntegerSwitchNumber];
  2902  0370  0844               	movf	applicationControl@IntegerSwitchNumber,w
  2903  0371  3EC7               	addlw	(low (_parentalLockBuffer| 0))& (0+255)
  2904  0372  0086               	movwf	6
  2905  0373  0187               	clrf	7
  2906  0374  0801               	movf	1,w
  2907  0375  00B6               	movwf	??_applicationControl
  2908  0376  0844               	movf	applicationControl@IntegerSwitchNumber,w
  2909  0377  3EC2               	addlw	(low (_copyparentalLockBuffer| 0))& (0+255)
  2910  0378  0086               	movwf	6
  2911  0379  0187               	clrf	7
  2912  037A  0836               	movf	??_applicationControl,w
  2913  037B  0081               	movwf	1
  2914                           
  2915                           ;applicationControl.h: 156: if(IntegerFinalframebit == 1)
  2916  037C  0340               	decf	applicationControl@IntegerFinalframebit,w
  2917  037D  0441               	iorwf	applicationControl@IntegerFinalframebit+1,w
  2918  037E  1D03               	btfss	3,2
  2919  037F  2BAC               	goto	l2181
  2920                           
  2921                           ;applicationControl.h: 157: {
  2922                           ;applicationControl.h: 158: sendAcknowledgment(sendFinalBufferToGAteway);
  2923  0380  3020               	movlw	low _sendFinalBufferToGAteway
  2924  0381  00A0               	movwf	sendAcknowledgment@currentStateBuffer
  2925  0382  3001               	movlw	high _sendFinalBufferToGAteway
  2926  0383  00A1               	movwf	sendAcknowledgment@currentStateBuffer+1
  2927  0384  3186  268A  3180   	fcall	_sendAcknowledgment
  2928                           
  2929                           ;applicationControl.h: 159: }
  2930                           ;applicationControl.h: 161: switch(IntegerSwitchNumber)
  2931  0387  2BAC               	goto	l2181
  2932  0388                     l2169:	
  2933                           ;applicationControl.h: 162: {
  2934                           ;applicationControl.h: 164: case 1:
  2935                           
  2936                           
  2937                           ;applicationControl.h: 165: {
  2938                           ;applicationControl.h: 166: PORTFbits.RF1 = IntergerSwitchStatus;
  2939  0388  0020               	movlb	0	; select bank0
  2940  0389  0C46               	rrf	applicationControl@IntergerSwitchStatus,w
  2941  038A  0025               	movlb	5	; select bank5
  2942  038B  1C03               	skipc
  2943  038C  108C               	bcf	12,1	;volatile
  2944  038D  1803               	skipnc
  2945  038E  148C               	bsf	12,1	;volatile
  2946                           
  2947                           ;applicationControl.h: 167: sendAcknowledgment("OK");
  2948  038F  3018               	movlw	low (STR_14| (0+32768))
  2949  0390  0020               	movlb	0	; select bank0
  2950  0391  00A0               	movwf	sendAcknowledgment@currentStateBuffer
  2951  0392  3090               	movlw	high (STR_14| (0+32768))
  2952  0393  00A1               	movwf	sendAcknowledgment@currentStateBuffer+1
  2953  0394  3186  268A         	fcall	_sendAcknowledgment
  2954                           
  2955                           ;applicationControl.h: 168: }
  2956                           ;applicationControl.h: 169: break;
  2957  0396  0008               	return
  2958  0397                     l2173:	
  2959                           ;applicationControl.h: 170: case 2:
  2960                           
  2961                           
  2962                           ;applicationControl.h: 171: PORTFbits.RF0 = IntergerSwitchStatus;
  2963  0397  0020               	movlb	0	; select bank0
  2964  0398  0C46               	rrf	applicationControl@IntergerSwitchStatus,w
  2965  0399  0025               	movlb	5	; select bank5
  2966  039A  1C03               	skipc
  2967  039B  100C               	bcf	12,0	;volatile
  2968  039C  1803               	skipnc
  2969  039D  140C               	bsf	12,0	;volatile
  2970                           
  2971                           ;applicationControl.h: 172: break;
  2972  039E  0008               	return
  2973  039F                     l2175:	
  2974                           ;applicationControl.h: 173: case 3:
  2975                           
  2976                           
  2977                           ;applicationControl.h: 174: PORTAbits.RA3 = IntergerSwitchStatus;
  2978  039F  0020               	movlb	0	; select bank0
  2979  03A0  0C46               	rrf	applicationControl@IntergerSwitchStatus,w
  2980  03A1  1C03               	skipc
  2981  03A2  118C               	bcf	12,3	;volatile
  2982  03A3  1803               	skipnc
  2983  03A4  158C               	bsf	12,3	;volatile
  2984                           
  2985                           ;applicationControl.h: 175: break;
  2986  03A5  0008               	return
  2987  03A6                     l2177:	
  2988                           ;applicationControl.h: 176: case 4:
  2989                           
  2990                           
  2991                           ;applicationControl.h: 177: PORTAbits.RA2 = IntergerSwitchStatus;
  2992  03A6  0C46               	rrf	applicationControl@IntergerSwitchStatus,w
  2993  03A7  1C03               	skipc
  2994  03A8  110C               	bcf	12,2	;volatile
  2995  03A9  1803               	skipnc
  2996  03AA  150C               	bsf	12,2	;volatile
  2997                           
  2998                           ;applicationControl.h: 182: }
  2999                           
  3000                           ;applicationControl.h: 180: break;
  3001                           
  3002                           ;applicationControl.h: 179: default:
  3003                           
  3004                           ;applicationControl.h: 178: break;
  3005  03AB  0008               	return
  3006  03AC                     l2181:	
  3007                           
  3008                           ; Switch on 2 bytes has been partitioned into a top level switch of size 1, and 1 sub-sw
      +                          itches
  3009                           ; Switch size 1, requested type "space"
  3010                           ; Number of cases is 1, Range of values is 0 to 0
  3011                           ; switch strategies available:
  3012                           ; Name         Instructions Cycles
  3013                           ; simple_byte            4     3 (average)
  3014                           ; direct_byte            8     6 (fixed)
  3015                           ; jumptable            260     6 (fixed)
  3016                           ;	Chosen strategy is simple_byte
  3017  03AC  0020               	movlb	0	; select bank0
  3018  03AD  0845               	movf	applicationControl@IntegerSwitchNumber+1,w
  3019  03AE  3A00               	xorlw	0	; case 0
  3020  03AF  1903               	skipnz
  3021  03B0  2BB2               	goto	l2425
  3022  03B1  2BC0               	goto	l187
  3023  03B2                     l2425:	
  3024                           
  3025                           ; Switch size 1, requested type "space"
  3026                           ; Number of cases is 4, Range of values is 1 to 4
  3027                           ; switch strategies available:
  3028                           ; Name         Instructions Cycles
  3029                           ; simple_byte           13     7 (average)
  3030                           ; direct_byte           17     9 (fixed)
  3031                           ; jumptable            263     9 (fixed)
  3032                           ;	Chosen strategy is simple_byte
  3033  03B2  0844               	movf	applicationControl@IntegerSwitchNumber,w
  3034  03B3  3A01               	xorlw	1	; case 1
  3035  03B4  1903               	skipnz
  3036  03B5  2B88               	goto	l2169
  3037  03B6  3A03               	xorlw	3	; case 2
  3038  03B7  1903               	skipnz
  3039  03B8  2B97               	goto	l2173
  3040  03B9  3A01               	xorlw	1	; case 3
  3041  03BA  1903               	skipnz
  3042  03BB  2B9F               	goto	l2175
  3043  03BC  3A07               	xorlw	7	; case 4
  3044  03BD  1903               	skipnz
  3045  03BE  2BA6               	goto	l2177
  3046  03BF  2BC0               	goto	l187
  3047  03C0                     l187:	
  3048  03C0  0008               	return
  3049  03C1                     __end_of_applicationControl:	
  3050                           
  3051                           	psect	text3
  3052  079B                     __ptext3:	
  3053 ;; *************** function _strcpy *****************
  3054 ;; Defined at:
  3055 ;;		line 8 in file "C:\Program Files (x86)\Microchip\xc8\v1.45\sources\common\strcpy.c"
  3056 ;; Parameters:    Size  Location     Type
  3057 ;;  to              1    wreg     PTR unsigned char 
  3058 ;;		 -> sendFinalBufferToGAteway(46), 
  3059 ;;  from            1    0[BANK0 ] PTR const unsigned char 
  3060 ;;		 -> ModuleNameBuffer(3), 
  3061 ;; Auto vars:     Size  Location     Type
  3062 ;;  to              1    2[BANK0 ] PTR unsigned char 
  3063 ;;		 -> sendFinalBufferToGAteway(46), 
  3064 ;;  cp              1    3[BANK0 ] PTR unsigned char 
  3065 ;;		 -> sendFinalBufferToGAteway(46), 
  3066 ;; Return value:  Size  Location     Type
  3067 ;;                  1    wreg      PTR unsigned char 
  3068 ;; Registers used:
  3069 ;;		wreg, fsr0l, fsr0h, fsr1l, fsr1h, status,2, status,0
  3070 ;; Tracked objects:
  3071 ;;		On entry : 0/0
  3072 ;;		On exit  : 0/0
  3073 ;;		Unchanged: 0/0
  3074 ;; Data sizes:     COMMON   BANK0   BANK1   BANK2   BANK3   BANK4   BANK5   BANK6   BANK7   BANK8   BANK9
  3075 ;;      Params:         0       1       0       0       0       0       0       0       0       0       0
  3076 ;;      Locals:         0       2       0       0       0       0       0       0       0       0       0
  3077 ;;      Temps:          0       1       0       0       0       0       0       0       0       0       0
  3078 ;;      Totals:         0       4       0       0       0       0       0       0       0       0       0
  3079 ;;Total ram usage:        4 bytes
  3080 ;; Hardware stack levels used:    1
  3081 ;; Hardware stack levels required when called:    2
  3082 ;; This function calls:
  3083 ;;		Nothing
  3084 ;; This function is called by:
  3085 ;;		_applicationControl
  3086 ;; This function uses a non-reentrant model
  3087 ;;
  3088                           
  3089                           
  3090                           ;psect for function _strcpy
  3091  079B                     _strcpy:	
  3092                           
  3093                           ;incstack = 0
  3094                           ; Regs used in _strcpy: [wreg-fsr1h+status,2+status,0]
  3095                           ;strcpy@to stored from wreg
  3096  079B  0020               	movlb	0	; select bank0
  3097  079C  00A2               	movwf	strcpy@to
  3098  079D  0822               	movf	strcpy@to,w
  3099  079E  00A1               	movwf	??_strcpy
  3100  079F  0821               	movf	??_strcpy,w
  3101  07A0  00A3               	movwf	strcpy@cp
  3102  07A1                     l1921:	
  3103  07A1  0823               	movf	strcpy@cp,w
  3104  07A2  0086               	movwf	6
  3105  07A3  3001               	movlw	1	; select bank2/3
  3106  07A4  0087               	movwf	7
  3107  07A5  0820               	movf	strcpy@from,w
  3108  07A6  0084               	movwf	4
  3109  07A7  0185               	clrf	5
  3110  07A8  0800               	movf	0,w
  3111  07A9  3FC0               	movwi [0]fsr1
  3112  07AA  0889               	movf	9,f
  3113  07AB  1903               	btfsc	3,2
  3114  07AC  0008               	return
  3115  07AD  3001               	movlw	1
  3116  07AE  00A1               	movwf	??_strcpy
  3117  07AF  0821               	movf	??_strcpy,w
  3118  07B0  07A3               	addwf	strcpy@cp,f
  3119  07B1  3001               	movlw	1
  3120  07B2  00A1               	movwf	??_strcpy
  3121  07B3  0821               	movf	??_strcpy,w
  3122  07B4  07A0               	addwf	strcpy@from,f
  3123  07B5  2FA1               	goto	l1921
  3124  07B6                     __end_of_strcpy:	
  3125                           ;	Return value of _strcpy is never used
  3126                           
  3127                           
  3128                           	psect	text4
  3129  0645                     __ptext4:	
  3130 ;; *************** function _strcat *****************
  3131 ;; Defined at:
  3132 ;;		line 8 in file "C:\Program Files (x86)\Microchip\xc8\v1.45\sources\common\strcat.c"
  3133 ;; Parameters:    Size  Location     Type
  3134 ;;  to              1    wreg     PTR unsigned char 
  3135 ;;		 -> sendFinalBufferToGAteway(46), 
  3136 ;;  from            2    0[BANK0 ] PTR const unsigned char 
  3137 ;;		 -> STR_12(2), STR_11(2), FinalFramebitBuffer(1), STR_10(2), 
  3138 ;;		 -> ChildLockBuffer(1), STR_9(2), BlueColorIntensityBuffer(3), STR_8(2), 
  3139 ;;		 -> GreenColorIntensityBuffer(3), STR_7(2), RedColorIntensityBuffer(3), STR_6(2), 
  3140 ;;		 -> SwitchStatusBuffer(1), STR_5(2), STR_4(7), STR_3(2), 
  3141 ;;		 -> SwitchNumberBuffer(2), STR_2(2), 
  3142 ;; Auto vars:     Size  Location     Type
  3143 ;;  to              1    4[BANK0 ] PTR unsigned char 
  3144 ;;		 -> sendFinalBufferToGAteway(46), 
  3145 ;;  cp              1    3[BANK0 ] PTR unsigned char 
  3146 ;;		 -> sendFinalBufferToGAteway(46), 
  3147 ;; Return value:  Size  Location     Type
  3148 ;;                  1    wreg      PTR unsigned char 
  3149 ;; Registers used:
  3150 ;;		wreg, fsr0l, fsr0h, fsr1l, fsr1h, status,2, status,0, pclath
  3151 ;; Tracked objects:
  3152 ;;		On entry : 0/0
  3153 ;;		On exit  : 0/0
  3154 ;;		Unchanged: 0/0
  3155 ;; Data sizes:     COMMON   BANK0   BANK1   BANK2   BANK3   BANK4   BANK5   BANK6   BANK7   BANK8   BANK9
  3156 ;;      Params:         0       2       0       0       0       0       0       0       0       0       0
  3157 ;;      Locals:         0       2       0       0       0       0       0       0       0       0       0
  3158 ;;      Temps:          0       1       0       0       0       0       0       0       0       0       0
  3159 ;;      Totals:         0       5       0       0       0       0       0       0       0       0       0
  3160 ;;Total ram usage:        5 bytes
  3161 ;; Hardware stack levels used:    1
  3162 ;; Hardware stack levels required when called:    2
  3163 ;; This function calls:
  3164 ;;		Nothing
  3165 ;; This function is called by:
  3166 ;;		_applicationControl
  3167 ;; This function uses a non-reentrant model
  3168 ;;
  3169                           
  3170                           
  3171                           ;psect for function _strcat
  3172  0645                     _strcat:	
  3173                           
  3174                           ;incstack = 0
  3175                           ; Regs used in _strcat: [wreg-fsr1h+status,2+status,0+pclath]
  3176                           ;strcat@to stored from wreg
  3177  0645  0020               	movlb	0	; select bank0
  3178  0646  00A4               	movwf	strcat@to
  3179  0647  0824               	movf	strcat@to,w
  3180  0648  00A2               	movwf	??_strcat
  3181  0649  0822               	movf	??_strcat,w
  3182  064A  00A3               	movwf	strcat@cp
  3183  064B                     l1927:	
  3184  064B  0823               	movf	strcat@cp,w
  3185  064C  0086               	movwf	6
  3186  064D  3001               	movlw	1	; select bank2/3
  3187  064E  0087               	movwf	7
  3188  064F  0801               	movf	1,w
  3189  0650  1903               	btfsc	3,2
  3190  0651  2E5F               	goto	l1933
  3191  0652  3001               	movlw	1
  3192  0653  00A2               	movwf	??_strcat
  3193  0654  0822               	movf	??_strcat,w
  3194  0655  07A3               	addwf	strcat@cp,f
  3195  0656  2E4B               	goto	l1927
  3196  0657                     l1929:	
  3197  0657  3001               	movlw	1
  3198  0658  00A2               	movwf	??_strcat
  3199  0659  0822               	movf	??_strcat,w
  3200  065A  07A3               	addwf	strcat@cp,f
  3201  065B  3001               	movlw	1
  3202  065C  07A0               	addwf	strcat@from,f
  3203  065D  3000               	movlw	0
  3204  065E  3DA1               	addwfc	strcat@from+1,f
  3205  065F                     l1933:	
  3206  065F  0823               	movf	strcat@cp,w
  3207  0660  0086               	movwf	6
  3208  0661  3001               	movlw	1	; select bank2/3
  3209  0662  0087               	movwf	7
  3210  0663  0820               	movf	strcat@from,w
  3211  0664  0084               	movwf	4
  3212  0665  0821               	movf	strcat@from+1,w
  3213  0666  0085               	movwf	5
  3214  0667  0800               	movf	0,w	;code access
  3215  0668  3FC0               	movwi [0]fsr1
  3216  0669  0889               	movf	9,f
  3217  066A  1903               	btfsc	3,2
  3218  066B  0008               	return
  3219  066C  2E57               	goto	l1929
  3220  066D                     __end_of_strcat:	
  3221                           ;	Return value of _strcat is never used
  3222                           
  3223                           
  3224                           	psect	text5
  3225  068A                     __ptext5:	
  3226 ;; *************** function _sendAcknowledgment *****************
  3227 ;; Defined at:
  3228 ;;		line 554 in file "mainFileRgbNewframeFormate.c"
  3229 ;; Parameters:    Size  Location     Type
  3230 ;;  currentState    2    0[BANK0 ] PTR unsigned char 
  3231 ;;		 -> STR_25(27), STR_24(27), STR_23(27), STR_22(27), 
  3232 ;;		 -> STR_21(27), STR_20(27), STR_19(27), STR_18(27), 
  3233 ;;		 -> STR_14(3), STR_13(4), sendFinalBufferToGAteway(46), STR_1(4), 
  3234 ;; Auto vars:     Size  Location     Type
  3235 ;;  Tx_count        2    2[BANK0 ] int 
  3236 ;; Return value:  Size  Location     Type
  3237 ;;                  1    wreg      void 
  3238 ;; Registers used:
  3239 ;;		wreg, fsr0l, fsr0h, status,2, status,0, pclath
  3240 ;; Tracked objects:
  3241 ;;		On entry : 0/0
  3242 ;;		On exit  : 0/0
  3243 ;;		Unchanged: 0/0
  3244 ;; Data sizes:     COMMON   BANK0   BANK1   BANK2   BANK3   BANK4   BANK5   BANK6   BANK7   BANK8   BANK9
  3245 ;;      Params:         0       2       0       0       0       0       0       0       0       0       0
  3246 ;;      Locals:         0       2       0       0       0       0       0       0       0       0       0
  3247 ;;      Temps:          0       0       0       0       0       0       0       0       0       0       0
  3248 ;;      Totals:         0       4       0       0       0       0       0       0       0       0       0
  3249 ;;Total ram usage:        4 bytes
  3250 ;; Hardware stack levels used:    1
  3251 ;; Hardware stack levels required when called:    2
  3252 ;; This function calls:
  3253 ;;		Nothing
  3254 ;; This function is called by:
  3255 ;;		_applicationControl
  3256 ;;		_main
  3257 ;; This function uses a non-reentrant model
  3258 ;;
  3259                           
  3260                           
  3261                           ;psect for function _sendAcknowledgment
  3262  068A                     _sendAcknowledgment:	
  3263                           
  3264                           ;mainFileRgbNewframeFormate.c: 555: int Tx_count=0;
  3265                           
  3266                           ;incstack = 0
  3267                           ; Regs used in _sendAcknowledgment: [wreg-fsr0h+status,2+status,0+pclath]
  3268  068A  0020               	movlb	0	; select bank0
  3269  068B  01A2               	clrf	sendAcknowledgment@Tx_count
  3270  068C  01A3               	clrf	sendAcknowledgment@Tx_count+1
  3271  068D                     l1915:	
  3272                           ;mainFileRgbNewframeFormate.c: 556: while(Tx_count != ((3+2+6+1+3+3+3+1+1)*2))
  3273                           
  3274  068D  302E               	movlw	46
  3275  068E  0622               	xorwf	sendAcknowledgment@Tx_count,w
  3276  068F  0423               	iorwf	sendAcknowledgment@Tx_count+1,w
  3277  0690  1903               	btfsc	3,2
  3278  0691  0008               	return
  3279  0692                     l260:	
  3280                           ;mainFileRgbNewframeFormate.c: 557: {
  3281                           ;mainFileRgbNewframeFormate.c: 558: while (!TX1STAbits.TRMT);
  3282                           
  3283  0692  0023               	movlb	3	; select bank3
  3284  0693  1C9E               	btfss	30,1	;volatile
  3285  0694  2E92               	goto	l260
  3286                           
  3287                           ;mainFileRgbNewframeFormate.c: 559: TX1REG = *currentStateBuffer;
  3288  0695  0020               	movlb	0	; select bank0
  3289  0696  0820               	movf	sendAcknowledgment@currentStateBuffer,w
  3290  0697  0084               	movwf	4
  3291  0698  0821               	movf	sendAcknowledgment@currentStateBuffer+1,w
  3292  0699  0085               	movwf	5
  3293  069A  0800               	movf	0,w	;code access
  3294  069B  0023               	movlb	3	; select bank3
  3295  069C  009A               	movwf	26	;volatile
  3296                           
  3297                           ;mainFileRgbNewframeFormate.c: 560: *currentStateBuffer++;
  3298  069D  3001               	movlw	1
  3299  069E  0020               	movlb	0	; select bank0
  3300  069F  07A0               	addwf	sendAcknowledgment@currentStateBuffer,f
  3301  06A0  3000               	movlw	0
  3302  06A1  3DA1               	addwfc	sendAcknowledgment@currentStateBuffer+1,f
  3303                           
  3304                           ;mainFileRgbNewframeFormate.c: 561: Tx_count++;
  3305  06A2  3001               	movlw	1
  3306  06A3  07A2               	addwf	sendAcknowledgment@Tx_count,f
  3307  06A4  3000               	movlw	0
  3308  06A5  3DA3               	addwfc	sendAcknowledgment@Tx_count+1,f
  3309  06A6  2E8D               	goto	l1915
  3310  06A7                     __end_of_sendAcknowledgment:	
  3311                           
  3312                           	psect	text6
  3313  059D                     __ptext6:	
  3314 ;; *************** function _atoi *****************
  3315 ;; Defined at:
  3316 ;;		line 5 in file "C:\Program Files (x86)\Microchip\xc8\v1.45\sources\common\atoi.c"
  3317 ;; Parameters:    Size  Location     Type
  3318 ;;  s               1    wreg     PTR const unsigned char 
  3319 ;;		 -> NULL(0), 
  3320 ;; Auto vars:     Size  Location     Type
  3321 ;;  s               1   13[BANK0 ] PTR const unsigned char 
  3322 ;;		 -> NULL(0), 
  3323 ;;  a               2   11[BANK0 ] int 
  3324 ;;  sign            1   10[BANK0 ] unsigned char 
  3325 ;; Return value:  Size  Location     Type
  3326 ;;                  2    6[BANK0 ] int 
  3327 ;; Registers used:
  3328 ;;		wreg, fsr1l, fsr1h, status,2, status,0, pclath, cstack
  3329 ;; Tracked objects:
  3330 ;;		On entry : 0/0
  3331 ;;		On exit  : 0/0
  3332 ;;		Unchanged: 0/0
  3333 ;; Data sizes:     COMMON   BANK0   BANK1   BANK2   BANK3   BANK4   BANK5   BANK6   BANK7   BANK8   BANK9
  3334 ;;      Params:         0       2       0       0       0       0       0       0       0       0       0
  3335 ;;      Locals:         0       4       0       0       0       0       0       0       0       0       0
  3336 ;;      Temps:          0       2       0       0       0       0       0       0       0       0       0
  3337 ;;      Totals:         0       8       0       0       0       0       0       0       0       0       0
  3338 ;;Total ram usage:        8 bytes
  3339 ;; Hardware stack levels used:    1
  3340 ;; Hardware stack levels required when called:    3
  3341 ;; This function calls:
  3342 ;;		___wmul
  3343 ;;		_isdigit
  3344 ;; This function is called by:
  3345 ;;		_applicationControl
  3346 ;; This function uses a non-reentrant model
  3347 ;;
  3348                           
  3349                           
  3350                           ;psect for function _atoi
  3351  059D                     _atoi:	
  3352                           
  3353                           ;incstack = 0
  3354                           ; Regs used in _atoi: [wreg+fsr1l+fsr1h+status,2+status,0+pclath+cstack]
  3355                           ;atoi@s stored from wreg
  3356  059D  0020               	movlb	0	; select bank0
  3357  059E  00AD               	movwf	atoi@s
  3358  059F                     l1939:	
  3359  059F  082D               	movf	atoi@s,w
  3360  05A0  0086               	movwf	6
  3361  05A1  0187               	clrf	7
  3362  05A2  3020               	movlw	32
  3363  05A3  0601               	xorwf	1,w
  3364  05A4  1D03               	btfss	3,2
  3365  05A5  2DAB               	goto	l1941
  3366  05A6                     l1937:	
  3367  05A6  3001               	movlw	1
  3368  05A7  00A8               	movwf	??_atoi
  3369  05A8  0828               	movf	??_atoi,w
  3370  05A9  07AD               	addwf	atoi@s,f
  3371  05AA  2D9F               	goto	l1939
  3372  05AB                     l1941:	
  3373  05AB  082D               	movf	atoi@s,w
  3374  05AC  0086               	movwf	6
  3375  05AD  0187               	clrf	7
  3376  05AE  3009               	movlw	9
  3377  05AF  0601               	xorwf	1,w
  3378  05B0  1903               	btfsc	3,2
  3379  05B1  2DA6               	goto	l1937
  3380  05B2  01AB               	clrf	atoi@a
  3381  05B3  01AC               	clrf	atoi@a+1
  3382  05B4  01AA               	clrf	atoi@sign
  3383  05B5  082D               	movf	atoi@s,w
  3384  05B6  0086               	movwf	6
  3385  05B7  0187               	clrf	7
  3386  05B8  302D               	movlw	45
  3387  05B9  0601               	xorwf	1,w
  3388  05BA  1D03               	btfss	3,2
  3389  05BB  2DC1               	goto	l1949
  3390  05BC  3001               	movlw	1
  3391  05BD  00A8               	movwf	??_atoi
  3392  05BE  0828               	movf	??_atoi,w
  3393  05BF  07AA               	addwf	atoi@sign,f
  3394  05C0  2DC8               	goto	l1955
  3395  05C1                     l1949:	
  3396  05C1  082D               	movf	atoi@s,w
  3397  05C2  0086               	movwf	6
  3398  05C3  0187               	clrf	7
  3399  05C4  302B               	movlw	43
  3400  05C5  0601               	xorwf	1,w
  3401  05C6  1D03               	btfss	3,2
  3402  05C7  2DCC               	goto	l1957
  3403  05C8                     l1955:	
  3404  05C8  3001               	movlw	1
  3405  05C9  00A8               	movwf	??_atoi
  3406  05CA  0828               	movf	??_atoi,w
  3407  05CB  07AD               	addwf	atoi@s,f
  3408  05CC                     l1957:	
  3409  05CC  082D               	movf	atoi@s,w
  3410  05CD  0086               	movwf	6
  3411  05CE  0187               	clrf	7
  3412  05CF  0801               	movf	1,w
  3413  05D0  318F  27CA  3185   	fcall	_isdigit
  3414  05D3  1C03               	btfss	3,0
  3415  05D4  2DF3               	goto	l1959
  3416  05D5  0020               	movlb	0	; select bank0
  3417  05D6  082C               	movf	atoi@a+1,w
  3418  05D7  00A1               	movwf	___wmul@multiplier+1
  3419  05D8  082B               	movf	atoi@a,w
  3420  05D9  00A0               	movwf	___wmul@multiplier
  3421  05DA  300A               	movlw	10
  3422  05DB  00A2               	movwf	___wmul@multiplicand
  3423  05DC  3000               	movlw	0
  3424  05DD  00A3               	movwf	___wmul@multiplicand+1
  3425  05DE  3186  26A7  3185   	fcall	___wmul
  3426  05E1  0020               	movlb	0	; select bank0
  3427  05E2  082D               	movf	atoi@s,w
  3428  05E3  0086               	movwf	6
  3429  05E4  0187               	clrf	7
  3430  05E5  0801               	movf	1,w
  3431  05E6  0720               	addwf	?___wmul,w
  3432  05E7  00A8               	movwf	??_atoi
  3433  05E8  0821               	movf	?___wmul+1,w
  3434  05E9  1803               	skipnc
  3435  05EA  0A21               	incf	?___wmul+1,w
  3436  05EB  00A9               	movwf	??_atoi+1
  3437  05EC  0828               	movf	??_atoi,w
  3438  05ED  3ED0               	addlw	208
  3439  05EE  00AB               	movwf	atoi@a
  3440  05EF  30FF               	movlw	255
  3441  05F0  3D29               	addwfc	??_atoi+1,w
  3442  05F1  00AC               	movwf	atoi@a+1
  3443  05F2  2DC8               	goto	l1955
  3444  05F3                     l1959:	
  3445  05F3  0020               	movlb	0	; select bank0
  3446  05F4  082A               	movf	atoi@sign,w
  3447  05F5  1903               	btfsc	3,2
  3448  05F6  2E03               	goto	l1965
  3449  05F7  092B               	comf	atoi@a,w
  3450  05F8  00A8               	movwf	??_atoi
  3451  05F9  092C               	comf	atoi@a+1,w
  3452  05FA  00A9               	movwf	??_atoi+1
  3453  05FB  0AA8               	incf	??_atoi,f
  3454  05FC  1903               	skipnz
  3455  05FD  0AA9               	incf	??_atoi+1,f
  3456  05FE  0828               	movf	??_atoi,w
  3457  05FF  00A6               	movwf	?_atoi
  3458  0600  0829               	movf	??_atoi+1,w
  3459  0601  00A7               	movwf	?_atoi+1
  3460  0602  0008               	return
  3461  0603                     l1965:	
  3462  0603  082C               	movf	atoi@a+1,w
  3463  0604  00A7               	movwf	?_atoi+1
  3464  0605  082B               	movf	atoi@a,w
  3465  0606  00A6               	movwf	?_atoi
  3466  0607  0008               	return
  3467  0608                     __end_of_atoi:	
  3468                           
  3469                           	psect	text7
  3470  0FCA                     __ptext7:	
  3471 ;; *************** function _isdigit *****************
  3472 ;; Defined at:
  3473 ;;		line 8 in file "C:\Program Files (x86)\Microchip\xc8\v1.45\sources\common\isdigit.c"
  3474 ;; Parameters:    Size  Location     Type
  3475 ;;  c               1    wreg     unsigned char 
  3476 ;; Auto vars:     Size  Location     Type
  3477 ;;  c               1    1[BANK0 ] unsigned char 
  3478 ;; Return value:  Size  Location     Type
  3479 ;;		None               void
  3480 ;; Registers used:
  3481 ;;		wreg, status,2, status,0
  3482 ;; Tracked objects:
  3483 ;;		On entry : 0/0
  3484 ;;		On exit  : 0/0
  3485 ;;		Unchanged: 0/0
  3486 ;; Data sizes:     COMMON   BANK0   BANK1   BANK2   BANK3   BANK4   BANK5   BANK6   BANK7   BANK8   BANK9
  3487 ;;      Params:         0       0       0       0       0       0       0       0       0       0       0
  3488 ;;      Locals:         0       2       0       0       0       0       0       0       0       0       0
  3489 ;;      Temps:          0       0       0       0       0       0       0       0       0       0       0
  3490 ;;      Totals:         0       2       0       0       0       0       0       0       0       0       0
  3491 ;;Total ram usage:        2 bytes
  3492 ;; Hardware stack levels used:    1
  3493 ;; Hardware stack levels required when called:    2
  3494 ;; This function calls:
  3495 ;;		Nothing
  3496 ;; This function is called by:
  3497 ;;		_atoi
  3498 ;; This function uses a non-reentrant model
  3499 ;;
  3500                           
  3501                           
  3502                           ;psect for function _isdigit
  3503  0FCA                     _isdigit:	
  3504                           
  3505                           ;incstack = 0
  3506                           ; Regs used in _isdigit: [wreg+status,2+status,0]
  3507                           ;isdigit@c stored from wreg
  3508  0FCA  0020               	movlb	0	; select bank0
  3509  0FCB  00A1               	movwf	isdigit@c
  3510  0FCC  01A0               	clrf	_isdigit$591
  3511  0FCD  303A               	movlw	58
  3512  0FCE  0221               	subwf	isdigit@c,w
  3513  0FCF  1803               	skipnc
  3514  0FD0  2FD7               	goto	l1903
  3515  0FD1  3030               	movlw	48
  3516  0FD2  0221               	subwf	isdigit@c,w
  3517  0FD3  1C03               	skipc
  3518  0FD4  2FD7               	goto	l1903
  3519  0FD5  01A0               	clrf	_isdigit$591
  3520  0FD6  0AA0               	incf	_isdigit$591,f
  3521  0FD7                     l1903:	
  3522  0FD7  0C20               	rrf	_isdigit$591,w
  3523  0FD8  0008               	return
  3524  0FD9                     __end_of_isdigit:	
  3525                           
  3526                           	psect	text8
  3527  06A7                     __ptext8:	
  3528 ;; *************** function ___wmul *****************
  3529 ;; Defined at:
  3530 ;;		line 15 in file "C:\Program Files (x86)\Microchip\xc8\v1.45\sources\common\Umul16.c"
  3531 ;; Parameters:    Size  Location     Type
  3532 ;;  multiplier      2    0[BANK0 ] unsigned int 
  3533 ;;  multiplicand    2    2[BANK0 ] unsigned int 
  3534 ;; Auto vars:     Size  Location     Type
  3535 ;;  product         2    4[BANK0 ] unsigned int 
  3536 ;; Return value:  Size  Location     Type
  3537 ;;                  2    0[BANK0 ] unsigned int 
  3538 ;; Registers used:
  3539 ;;		wreg, status,2, status,0
  3540 ;; Tracked objects:
  3541 ;;		On entry : 0/0
  3542 ;;		On exit  : 0/0
  3543 ;;		Unchanged: 0/0
  3544 ;; Data sizes:     COMMON   BANK0   BANK1   BANK2   BANK3   BANK4   BANK5   BANK6   BANK7   BANK8   BANK9
  3545 ;;      Params:         0       4       0       0       0       0       0       0       0       0       0
  3546 ;;      Locals:         0       2       0       0       0       0       0       0       0       0       0
  3547 ;;      Temps:          0       0       0       0       0       0       0       0       0       0       0
  3548 ;;      Totals:         0       6       0       0       0       0       0       0       0       0       0
  3549 ;;Total ram usage:        6 bytes
  3550 ;; Hardware stack levels used:    1
  3551 ;; Hardware stack levels required when called:    2
  3552 ;; This function calls:
  3553 ;;		Nothing
  3554 ;; This function is called by:
  3555 ;;		_atoi
  3556 ;; This function uses a non-reentrant model
  3557 ;;
  3558                           
  3559                           
  3560                           ;psect for function ___wmul
  3561  06A7                     ___wmul:	
  3562                           
  3563                           ;incstack = 0
  3564                           ; Regs used in ___wmul: [wreg+status,2+status,0]
  3565  06A7  0020               	movlb	0	; select bank0
  3566  06A8  01A4               	clrf	___wmul@product
  3567  06A9  01A5               	clrf	___wmul@product+1
  3568  06AA                     l1883:	
  3569  06AA  1C20               	btfss	___wmul@multiplier,0
  3570  06AB  2EB0               	goto	l274
  3571  06AC  0822               	movf	___wmul@multiplicand,w
  3572  06AD  07A4               	addwf	___wmul@product,f
  3573  06AE  0823               	movf	___wmul@multiplicand+1,w
  3574  06AF  3DA5               	addwfc	___wmul@product+1,f
  3575  06B0                     l274:	
  3576  06B0  3001               	movlw	1
  3577  06B1                     u1745:	
  3578  06B1  35A2               	lslf	___wmul@multiplicand,f
  3579  06B2  0DA3               	rlf	___wmul@multiplicand+1,f
  3580  06B3  0B89               	decfsz	9,f
  3581  06B4  2EB1               	goto	u1745
  3582  06B5  3001               	movlw	1
  3583  06B6                     u1755:	
  3584  06B6  36A1               	lsrf	___wmul@multiplier+1,f
  3585  06B7  0CA0               	rrf	___wmul@multiplier,f
  3586  06B8  0B89               	decfsz	9,f
  3587  06B9  2EB6               	goto	u1755
  3588  06BA  0820               	movf	___wmul@multiplier,w
  3589  06BB  0421               	iorwf	___wmul@multiplier+1,w
  3590  06BC  1D03               	btfss	3,2
  3591  06BD  2EAA               	goto	l1883
  3592  06BE  0825               	movf	___wmul@product+1,w
  3593  06BF  00A1               	movwf	?___wmul+1
  3594  06C0  0824               	movf	___wmul@product,w
  3595  06C1  00A0               	movwf	?___wmul
  3596  06C2  0008               	return
  3597  06C3                     __end_of___wmul:	
  3598                           
  3599                           	psect	text9
  3600  0FB3                     __ptext9:	
  3601 ;; *************** function _allPeripheralInit *****************
  3602 ;; Defined at:
  3603 ;;		line 486 in file "mainFileRgbNewframeFormate.c"
  3604 ;; Parameters:    Size  Location     Type
  3605 ;;		None
  3606 ;; Auto vars:     Size  Location     Type
  3607 ;;		None
  3608 ;; Return value:  Size  Location     Type
  3609 ;;                  1    wreg      void 
  3610 ;; Registers used:
  3611 ;;		wreg, status,2, status,0, pclath, cstack
  3612 ;; Tracked objects:
  3613 ;;		On entry : 0/0
  3614 ;;		On exit  : 0/0
  3615 ;;		Unchanged: 0/0
  3616 ;; Data sizes:     COMMON   BANK0   BANK1   BANK2   BANK3   BANK4   BANK5   BANK6   BANK7   BANK8   BANK9
  3617 ;;      Params:         0       0       0       0       0       0       0       0       0       0       0
  3618 ;;      Locals:         0       0       0       0       0       0       0       0       0       0       0
  3619 ;;      Temps:          0       0       0       0       0       0       0       0       0       0       0
  3620 ;;      Totals:         0       0       0       0       0       0       0       0       0       0       0
  3621 ;;Total ram usage:        0 bytes
  3622 ;; Hardware stack levels used:    1
  3623 ;; Hardware stack levels required when called:    3
  3624 ;; This function calls:
  3625 ;;		_EUSART_Initialize
  3626 ;; This function is called by:
  3627 ;;		_main
  3628 ;; This function uses a non-reentrant model
  3629 ;;
  3630                           
  3631                           
  3632                           ;psect for function _allPeripheralInit
  3633  0FB3                     _allPeripheralInit:	
  3634                           
  3635                           ;mainFileRgbNewframeFormate.c: 487: EUSART_Initialize();
  3636                           
  3637                           ;incstack = 0
  3638                           ; Regs used in _allPeripheralInit: [wreg+status,2+status,0+pclath+cstack]
  3639  0FB3  3187  27CF         	fcall	_EUSART_Initialize
  3640  0FB5  0008               	return
  3641  0FB6                     __end_of_allPeripheralInit:	
  3642                           
  3643                           	psect	text10
  3644  07CF                     __ptext10:	
  3645 ;; *************** function _EUSART_Initialize *****************
  3646 ;; Defined at:
  3647 ;;		line 494 in file "mainFileRgbNewframeFormate.c"
  3648 ;; Parameters:    Size  Location     Type
  3649 ;;		None
  3650 ;; Auto vars:     Size  Location     Type
  3651 ;;		None
  3652 ;; Return value:  Size  Location     Type
  3653 ;;                  1    wreg      void 
  3654 ;; Registers used:
  3655 ;;		wreg
  3656 ;; Tracked objects:
  3657 ;;		On entry : 0/0
  3658 ;;		On exit  : 0/0
  3659 ;;		Unchanged: 0/0
  3660 ;; Data sizes:     COMMON   BANK0   BANK1   BANK2   BANK3   BANK4   BANK5   BANK6   BANK7   BANK8   BANK9
  3661 ;;      Params:         0       0       0       0       0       0       0       0       0       0       0
  3662 ;;      Locals:         0       0       0       0       0       0       0       0       0       0       0
  3663 ;;      Temps:          0       0       0       0       0       0       0       0       0       0       0
  3664 ;;      Totals:         0       0       0       0       0       0       0       0       0       0       0
  3665 ;;Total ram usage:        0 bytes
  3666 ;; Hardware stack levels used:    1
  3667 ;; Hardware stack levels required when called:    2
  3668 ;; This function calls:
  3669 ;;		Nothing
  3670 ;; This function is called by:
  3671 ;;		_allPeripheralInit
  3672 ;; This function uses a non-reentrant model
  3673 ;;
  3674                           
  3675                           
  3676                           ;psect for function _EUSART_Initialize
  3677  07CF                     _EUSART_Initialize:	
  3678                           
  3679                           ;mainFileRgbNewframeFormate.c: 495: PIE1bits.RC1IE = 0;
  3680                           
  3681                           ;incstack = 0
  3682                           ; Regs used in _EUSART_Initialize: [wreg]
  3683  07CF  0021               	movlb	1	; select bank1
  3684  07D0  1291               	bcf	17,5	;volatile
  3685                           
  3686                           ;mainFileRgbNewframeFormate.c: 496: PIE1bits.TX1IE = 0;
  3687  07D1  1211               	bcf	17,4	;volatile
  3688                           
  3689                           ;mainFileRgbNewframeFormate.c: 501: BAUD1CON = 0x0A;
  3690  07D2  300A               	movlw	10
  3691  07D3  0023               	movlb	3	; select bank3
  3692  07D4  009F               	movwf	31	;volatile
  3693                           
  3694                           ;mainFileRgbNewframeFormate.c: 504: RC1STA = 0x90;
  3695  07D5  3090               	movlw	144
  3696  07D6  009D               	movwf	29	;volatile
  3697                           
  3698                           ;mainFileRgbNewframeFormate.c: 507: TX1STA = 0x24;
  3699  07D7  3024               	movlw	36
  3700  07D8  009E               	movwf	30	;volatile
  3701                           
  3702                           ;mainFileRgbNewframeFormate.c: 512: SP1BRGL = 0xA0;
  3703  07D9  30A0               	movlw	160
  3704  07DA  009B               	movwf	27	;volatile
  3705                           
  3706                           ;mainFileRgbNewframeFormate.c: 514: SP1BRGH = 0x01;
  3707  07DB  3001               	movlw	1
  3708  07DC  009C               	movwf	28	;volatile
  3709                           
  3710                           ;mainFileRgbNewframeFormate.c: 517: GIE = 1;
  3711  07DD  178B               	bsf	11,7	;volatile
  3712                           
  3713                           ;mainFileRgbNewframeFormate.c: 520: PEIE = 1;
  3714  07DE  170B               	bsf	11,6	;volatile
  3715                           
  3716                           ;mainFileRgbNewframeFormate.c: 523: PIE1bits.RC1IE = 1;
  3717  07DF  0021               	movlb	1	; select bank1
  3718  07E0  1691               	bsf	17,5	;volatile
  3719                           
  3720                           ;mainFileRgbNewframeFormate.c: 526: TX1STAbits.TXEN = 1;
  3721  07E1  0023               	movlb	3	; select bank3
  3722  07E2  169E               	bsf	30,5	;volatile
  3723                           
  3724                           ;mainFileRgbNewframeFormate.c: 529: RC1STAbits.SPEN = 1;
  3725  07E3  179D               	bsf	29,7	;volatile
  3726  07E4  0008               	return
  3727  07E5                     __end_of_EUSART_Initialize:	
  3728                           
  3729                           	psect	text11
  3730  07E5                     __ptext11:	
  3731 ;; *************** function _GPIO_pin_Initialize *****************
  3732 ;; Defined at:
  3733 ;;		line 459 in file "mainFileRgbNewframeFormate.c"
  3734 ;; Parameters:    Size  Location     Type
  3735 ;;		None
  3736 ;; Auto vars:     Size  Location     Type
  3737 ;;		None
  3738 ;; Return value:  Size  Location     Type
  3739 ;;                  1    wreg      void 
  3740 ;; Registers used:
  3741 ;;		status,2, status,0, pclath, cstack
  3742 ;; Tracked objects:
  3743 ;;		On entry : 0/0
  3744 ;;		On exit  : 0/0
  3745 ;;		Unchanged: 0/0
  3746 ;; Data sizes:     COMMON   BANK0   BANK1   BANK2   BANK3   BANK4   BANK5   BANK6   BANK7   BANK8   BANK9
  3747 ;;      Params:         0       0       0       0       0       0       0       0       0       0       0
  3748 ;;      Locals:         0       0       0       0       0       0       0       0       0       0       0
  3749 ;;      Temps:          0       0       0       0       0       0       0       0       0       0       0
  3750 ;;      Totals:         0       0       0       0       0       0       0       0       0       0       0
  3751 ;;Total ram usage:        0 bytes
  3752 ;; Hardware stack levels used:    1
  3753 ;; Hardware stack levels required when called:    3
  3754 ;; This function calls:
  3755 ;;		_clearAllPorts
  3756 ;;		_pinINIT_extra
  3757 ;; This function is called by:
  3758 ;;		_main
  3759 ;; This function uses a non-reentrant model
  3760 ;;
  3761                           
  3762                           
  3763                           ;psect for function _GPIO_pin_Initialize
  3764  07E5                     _GPIO_pin_Initialize:	
  3765                           
  3766                           ;mainFileRgbNewframeFormate.c: 460: clearAllPorts();
  3767                           
  3768                           ;incstack = 0
  3769                           ; Regs used in _GPIO_pin_Initialize: [status,2+status,0+pclath+cstack]
  3770  07E5  318F  27BC  3187   	fcall	_clearAllPorts
  3771                           
  3772                           ;mainFileRgbNewframeFormate.c: 461: pinINIT_extra();
  3773  07E8  318F  27EB  3187   	fcall	_pinINIT_extra
  3774                           
  3775                           ;mainFileRgbNewframeFormate.c: 462: TRISFbits.TRISF7 = 1;
  3776  07EB  0026               	movlb	6	; select bank6
  3777  07EC  178C               	bsf	12,7	;volatile
  3778                           
  3779                           ;mainFileRgbNewframeFormate.c: 463: TRISFbits.TRISF5 = 1;
  3780  07ED  168C               	bsf	12,5	;volatile
  3781                           
  3782                           ;mainFileRgbNewframeFormate.c: 464: TRISFbits.TRISF3 = 1;
  3783  07EE  158C               	bsf	12,3	;volatile
  3784                           
  3785                           ;mainFileRgbNewframeFormate.c: 465: TRISFbits.TRISF2 = 1;
  3786  07EF  150C               	bsf	12,2	;volatile
  3787                           
  3788                           ;mainFileRgbNewframeFormate.c: 468: TRISFbits.TRISF1 = 0;
  3789  07F0  108C               	bcf	12,1	;volatile
  3790                           
  3791                           ;mainFileRgbNewframeFormate.c: 469: TRISFbits.TRISF0 = 0;
  3792  07F1  100C               	bcf	12,0	;volatile
  3793                           
  3794                           ;mainFileRgbNewframeFormate.c: 470: TRISAbits.TRISA3 = 0;
  3795  07F2  0021               	movlb	1	; select bank1
  3796  07F3  118C               	bcf	12,3	;volatile
  3797                           
  3798                           ;mainFileRgbNewframeFormate.c: 471: TRISAbits.TRISA2 = 0;
  3799  07F4  110C               	bcf	12,2	;volatile
  3800                           
  3801                           ;mainFileRgbNewframeFormate.c: 477: TRISCbits.TRISC6 = 0;
  3802  07F5  130E               	bcf	14,6	;volatile
  3803                           
  3804                           ;mainFileRgbNewframeFormate.c: 478: TRISCbits.TRISC7 = 1;
  3805  07F6  178E               	bsf	14,7	;volatile
  3806                           
  3807                           ;mainFileRgbNewframeFormate.c: 480: clearAllPorts();
  3808  07F7  318F  27BC         	fcall	_clearAllPorts
  3809  07F9  0008               	return
  3810  07FA                     __end_of_GPIO_pin_Initialize:	
  3811                           
  3812                           	psect	text12
  3813  0FEB                     __ptext12:	
  3814 ;; *************** function _pinINIT_extra *****************
  3815 ;; Defined at:
  3816 ;;		line 568 in file "mainFileRgbNewframeFormate.c"
  3817 ;; Parameters:    Size  Location     Type
  3818 ;;		None
  3819 ;; Auto vars:     Size  Location     Type
  3820 ;;		None
  3821 ;; Return value:  Size  Location     Type
  3822 ;;                  1    wreg      void 
  3823 ;; Registers used:
  3824 ;;		status,2
  3825 ;; Tracked objects:
  3826 ;;		On entry : 0/0
  3827 ;;		On exit  : 0/0
  3828 ;;		Unchanged: 0/0
  3829 ;; Data sizes:     COMMON   BANK0   BANK1   BANK2   BANK3   BANK4   BANK5   BANK6   BANK7   BANK8   BANK9
  3830 ;;      Params:         0       0       0       0       0       0       0       0       0       0       0
  3831 ;;      Locals:         0       0       0       0       0       0       0       0       0       0       0
  3832 ;;      Temps:          0       0       0       0       0       0       0       0       0       0       0
  3833 ;;      Totals:         0       0       0       0       0       0       0       0       0       0       0
  3834 ;;Total ram usage:        0 bytes
  3835 ;; Hardware stack levels used:    1
  3836 ;; Hardware stack levels required when called:    2
  3837 ;; This function calls:
  3838 ;;		Nothing
  3839 ;; This function is called by:
  3840 ;;		_GPIO_pin_Initialize
  3841 ;; This function uses a non-reentrant model
  3842 ;;
  3843                           
  3844                           
  3845                           ;psect for function _pinINIT_extra
  3846  0FEB                     _pinINIT_extra:	
  3847                           
  3848                           ;mainFileRgbNewframeFormate.c: 569: ANSELG=0x00; WPUG = 0;
  3849                           
  3850                           ;incstack = 0
  3851                           ; Regs used in _pinINIT_extra: [status,2]
  3852  0FEB  0028               	movlb	8	; select bank8
  3853  0FEC  018D               	clrf	13	;volatile
  3854  0FED  0029               	movlb	9	; select bank9
  3855  0FEE  018D               	clrf	13	;volatile
  3856                           
  3857                           ;mainFileRgbNewframeFormate.c: 571: ANSELF=0x00;
  3858  0FEF  0028               	movlb	8	; select bank8
  3859  0FF0  018C               	clrf	12	;volatile
  3860                           
  3861                           ;mainFileRgbNewframeFormate.c: 573: ANSELE=0x00; WPUE=0x00;
  3862  0FF1  0023               	movlb	3	; select bank3
  3863  0FF2  0190               	clrf	16	;volatile
  3864  0FF3  0024               	movlb	4	; select bank4
  3865  0FF4  0190               	clrf	16	;volatile
  3866                           
  3867                           ;mainFileRgbNewframeFormate.c: 575: ANSELD=0x00; WPUD=0x00;
  3868  0FF5  0023               	movlb	3	; select bank3
  3869  0FF6  018F               	clrf	15	;volatile
  3870  0FF7  0024               	movlb	4	; select bank4
  3871  0FF8  018F               	clrf	15	;volatile
  3872                           
  3873                           ;mainFileRgbNewframeFormate.c: 577: ANSELB=0x00; WPUB=0x00;
  3874  0FF9  0023               	movlb	3	; select bank3
  3875  0FFA  018D               	clrf	13	;volatile
  3876  0FFB  0024               	movlb	4	; select bank4
  3877  0FFC  018D               	clrf	13	;volatile
  3878                           
  3879                           ;mainFileRgbNewframeFormate.c: 579: ANSELA=0x00;
  3880  0FFD  0023               	movlb	3	; select bank3
  3881  0FFE  018C               	clrf	12	;volatile
  3882  0FFF  0008               	return
  3883  1000                     __end_of_pinINIT_extra:	
  3884                           
  3885                           	psect	text13
  3886  0FBC                     __ptext13:	
  3887 ;; *************** function _clearAllPorts *****************
  3888 ;; Defined at:
  3889 ;;		line 585 in file "mainFileRgbNewframeFormate.c"
  3890 ;; Parameters:    Size  Location     Type
  3891 ;;		None
  3892 ;; Auto vars:     Size  Location     Type
  3893 ;;		None
  3894 ;; Return value:  Size  Location     Type
  3895 ;;                  1    wreg      void 
  3896 ;; Registers used:
  3897 ;;		None
  3898 ;; Tracked objects:
  3899 ;;		On entry : 0/0
  3900 ;;		On exit  : 0/0
  3901 ;;		Unchanged: 0/0
  3902 ;; Data sizes:     COMMON   BANK0   BANK1   BANK2   BANK3   BANK4   BANK5   BANK6   BANK7   BANK8   BANK9
  3903 ;;      Params:         0       0       0       0       0       0       0       0       0       0       0
  3904 ;;      Locals:         0       0       0       0       0       0       0       0       0       0       0
  3905 ;;      Temps:          0       0       0       0       0       0       0       0       0       0       0
  3906 ;;      Totals:         0       0       0       0       0       0       0       0       0       0       0
  3907 ;;Total ram usage:        0 bytes
  3908 ;; Hardware stack levels used:    1
  3909 ;; Hardware stack levels required when called:    2
  3910 ;; This function calls:
  3911 ;;		Nothing
  3912 ;; This function is called by:
  3913 ;;		_GPIO_pin_Initialize
  3914 ;; This function uses a non-reentrant model
  3915 ;;
  3916                           
  3917                           
  3918                           ;psect for function _clearAllPorts
  3919  0FBC                     _clearAllPorts:	
  3920                           
  3921                           ;mainFileRgbNewframeFormate.c: 586: PORTFbits.RF1=0;
  3922                           
  3923                           ;incstack = 0
  3924                           ; Regs used in _clearAllPorts: []
  3925  0FBC  0025               	movlb	5	; select bank5
  3926  0FBD  108C               	bcf	12,1	;volatile
  3927                           
  3928                           ;mainFileRgbNewframeFormate.c: 587: PORTFbits.RF0=0;
  3929  0FBE  100C               	bcf	12,0	;volatile
  3930                           
  3931                           ;mainFileRgbNewframeFormate.c: 588: PORTAbits.RA3=0;
  3932  0FBF  0020               	movlb	0	; select bank0
  3933  0FC0  118C               	bcf	12,3	;volatile
  3934                           
  3935                           ;mainFileRgbNewframeFormate.c: 589: PORTAbits.RA2=0;
  3936  0FC1  110C               	bcf	12,2	;volatile
  3937  0FC2  0008               	return
  3938  0FC3                     __end_of_clearAllPorts:	
  3939                           
  3940                           	psect	intentry
  3941  0004                     __pintentry:	
  3942 ;; *************** function _isr *****************
  3943 ;; Defined at:
  3944 ;;		line 183 in file "mainFileRgbNewframeFormate.c"
  3945 ;; Parameters:    Size  Location     Type
  3946 ;;		None
  3947 ;; Auto vars:     Size  Location     Type
  3948 ;;		None
  3949 ;; Return value:  Size  Location     Type
  3950 ;;                  1    wreg      void 
  3951 ;; Registers used:
  3952 ;;		wreg, fsr0l, fsr0h, fsr1l, fsr1h, status,2, status,0, pclath, cstack
  3953 ;; Tracked objects:
  3954 ;;		On entry : 0/0
  3955 ;;		On exit  : 0/0
  3956 ;;		Unchanged: 0/0
  3957 ;; Data sizes:     COMMON   BANK0   BANK1   BANK2   BANK3   BANK4   BANK5   BANK6   BANK7   BANK8   BANK9
  3958 ;;      Params:         0       0       0       0       0       0       0       0       0       0       0
  3959 ;;      Locals:         0       0       0       0       0       0       0       0       0       0       0
  3960 ;;      Temps:          2       0       0       0       0       0       0       0       0       0       0
  3961 ;;      Totals:         2       0       0       0       0       0       0       0       0       0       0
  3962 ;;Total ram usage:        2 bytes
  3963 ;; Hardware stack levels used:    1
  3964 ;; Hardware stack levels required when called:    1
  3965 ;; This function calls:
  3966 ;;		_errorsISR
  3967 ;; This function is called by:
  3968 ;;		Interrupt level 1
  3969 ;; This function uses a non-reentrant model
  3970 ;;
  3971                           
  3972  0004                     _isr:	
  3973                           
  3974                           ;incstack = 0
  3975  0004  147E               	bsf	126,0	;set compiler interrupt flag (level 1)
  3976                           
  3977                           ; Regs used in _isr: [wreg-fsr1h+status,2+status,0+pclath+cstack]
  3978  0005  3180               	pagesel	$
  3979  0006  0020               	movlb	0	; select bank0
  3980  0007  087F               	movf	127,w
  3981  0008  00FB               	movwf	??_isr+1
  3982                           
  3983                           ;mainFileRgbNewframeFormate.c: 186: if(RC1IF){
  3984  0009  1E91               	btfss	17,5	;volatile
  3985  000A  288A               	goto	i1l199
  3986                           
  3987                           ;mainFileRgbNewframeFormate.c: 187: if(RC1STAbits.OERR){
  3988  000B  0023               	movlb	3	; select bank3
  3989  000C  1C9D               	btfss	29,1	;volatile
  3990  000D  2828               	goto	i1l1645
  3991                           
  3992                           ;mainFileRgbNewframeFormate.c: 188: RC1STAbits.CREN = 0;
  3993  000E  121D               	bcf	29,4	;volatile
  3994                           
  3995                           ;mainFileRgbNewframeFormate.c: 189: RC1STAbits.CREN = 1;
  3996  000F  161D               	bsf	29,4	;volatile
  3997                           
  3998                           ;mainFileRgbNewframeFormate.c: 190: ErrorNames[0]='E'; ErrorNames[1]='R'; ErrorNames[2]=
      +                          'O'; ErrorNames[3]='V';
  3999  0010  3045               	movlw	69
  4000  0011  00FA               	movwf	??_isr
  4001  0012  087A               	movf	??_isr,w
  4002  0013  0021               	movlb	1	; select bank1
  4003  0014  00CC               	movwf	_ErrorNames^(0+128)
  4004  0015  3052               	movlw	82
  4005  0016  00FA               	movwf	??_isr
  4006  0017  087A               	movf	??_isr,w
  4007  0018  00CD               	movwf	(_ErrorNames^(0+128)+1)
  4008  0019  304F               	movlw	79
  4009  001A  00FA               	movwf	??_isr
  4010  001B  087A               	movf	??_isr,w
  4011  001C  00CE               	movwf	(_ErrorNames^(0+128)+2)
  4012  001D  3056               	movlw	86
  4013  001E  00FA               	movwf	??_isr
  4014  001F  087A               	movf	??_isr,w
  4015  0020  00CF               	movwf	(_ErrorNames^(0+128)+3)
  4016                           
  4017                           ;mainFileRgbNewframeFormate.c: 191: errorsISR(ErrorNames);
  4018  0021  30CC               	movlw	low _ErrorNames
  4019  0022  00F6               	movwf	errorsISR@errNum
  4020  0023  3000               	movlw	high _ErrorNames
  4021  0024  00F7               	movwf	errorsISR@errNum+1
  4022  0025  3187  27B6  3180   	fcall	_errorsISR
  4023  0028                     i1l1645:	
  4024                           
  4025                           ;mainFileRgbNewframeFormate.c: 192: }
  4026                           ;mainFileRgbNewframeFormate.c: 194: mainReceivedDataBuffer[mainReceivedDataPosition]=RC1
      +                          REG;
  4027  0028  0023               	movlb	3	; select bank3
  4028  0029  0819               	movf	25,w	;volatile
  4029  002A  00FA               	movwf	??_isr
  4030  002B  0870               	movf	_mainReceivedDataPosition,w
  4031  002C  3E4E               	addlw	(low (_mainReceivedDataBuffer| (0+256)))& (0+255)
  4032  002D  0086               	movwf	6
  4033  002E  3001               	movlw	1	; select bank2/3
  4034  002F  0087               	movwf	7
  4035  0030  087A               	movf	??_isr,w
  4036  0031  0081               	movwf	1
  4037                           
  4038                           ;mainFileRgbNewframeFormate.c: 195: copymainReceivedDataBuffer[mainReceivedDataPosition]
      +                           = mainReceivedDataBuffer[mainReceivedDataPosition];
  4039  0032  0870               	movf	_mainReceivedDataPosition,w
  4040  0033  3E4E               	addlw	(low (_mainReceivedDataBuffer| (0+256)))& (0+255)
  4041  0034  0086               	movwf	6
  4042  0035  3001               	movlw	1	; select bank2/3
  4043  0036  0087               	movwf	7
  4044  0037  0801               	movf	1,w
  4045  0038  00FA               	movwf	??_isr
  4046  0039  0870               	movf	_mainReceivedDataPosition,w
  4047  003A  3EA0               	addlw	(low (_copymainReceivedDataBuffer| 0))& (0+255)
  4048  003B  0086               	movwf	6
  4049  003C  0187               	clrf	7
  4050  003D  087A               	movf	??_isr,w
  4051  003E  0081               	movwf	1
  4052                           
  4053                           ;mainFileRgbNewframeFormate.c: 197: TX1REG=copymainReceivedDataBuffer[mainReceivedDataPo
      +                          sition];
  4054  003F  0870               	movf	_mainReceivedDataPosition,w
  4055  0040  3EA0               	addlw	(low (_copymainReceivedDataBuffer| 0))& (0+255)
  4056  0041  0086               	movwf	6
  4057  0042  0187               	clrf	7
  4058  0043  0801               	movf	1,w
  4059  0044  009A               	movwf	26	;volatile
  4060                           
  4061                           ;mainFileRgbNewframeFormate.c: 199: if(copymainReceivedDataBuffer[0] == 'S' || copymainR
      +                          eceivedDataBuffer[0] == 'R'){
  4062  0045  3053               	movlw	83
  4063  0046  0021               	movlb	1	; select bank1
  4064  0047  0620               	xorwf	_copymainReceivedDataBuffer^(0+128),w
  4065  0048  1903               	btfsc	3,2
  4066  0049  284E               	goto	i1l1655
  4067  004A  3052               	movlw	82
  4068  004B  0620               	xorwf	_copymainReceivedDataBuffer^(0+128),w
  4069  004C  1D03               	btfss	3,2
  4070  004D  286E               	goto	i1l194
  4071  004E                     i1l1655:	
  4072                           
  4073                           ;mainFileRgbNewframeFormate.c: 200: mainReceivedDataPosition++;
  4074  004E  3001               	movlw	1
  4075  004F  07F0               	addwf	_mainReceivedDataPosition,f
  4076  0050  3000               	movlw	0
  4077  0051  3DF1               	addwfc	_mainReceivedDataPosition+1,f
  4078                           
  4079                           ;mainFileRgbNewframeFormate.c: 201: if(mainReceivedDataPosition > 30){
  4080  0052  0871               	movf	_mainReceivedDataPosition+1,w
  4081  0053  3A80               	xorlw	128
  4082  0054  00FA               	movwf	??_isr
  4083  0055  3080               	movlw	128
  4084  0056  027A               	subwf	??_isr,w
  4085  0057  1D03               	skipz
  4086  0058  285B               	goto	u129_25
  4087  0059  301F               	movlw	31
  4088  005A  0270               	subwf	_mainReceivedDataPosition,w
  4089  005B                     u129_25:	
  4090  005B  1C03               	skipc
  4091  005C  288A               	goto	i1l199
  4092                           
  4093                           ;mainFileRgbNewframeFormate.c: 202: mainDataReceived=1;
  4094  005D  3001               	movlw	1
  4095  005E  0020               	movlb	0	; select bank0
  4096  005F  00D2               	movwf	_mainDataReceived
  4097  0060  3000               	movlw	0
  4098  0061  00D3               	movwf	_mainDataReceived+1
  4099                           
  4100                           ;mainFileRgbNewframeFormate.c: 203: errorsISR("ISR");
  4101  0062  3010               	movlw	low (STR_15| (0+32768))
  4102  0063  00F6               	movwf	errorsISR@errNum
  4103  0064  3090               	movlw	high (STR_15| (0+32768))
  4104  0065  00F7               	movwf	errorsISR@errNum+1
  4105  0066  3187  27B6  3180   	fcall	_errorsISR
  4106                           
  4107                           ;mainFileRgbNewframeFormate.c: 204: mainReceivedDataPosition=0;
  4108  0069  01F0               	clrf	_mainReceivedDataPosition
  4109  006A  01F1               	clrf	_mainReceivedDataPosition+1
  4110                           
  4111                           ;mainFileRgbNewframeFormate.c: 205: RC1IF=0;
  4112  006B  0020               	movlb	0	; select bank0
  4113  006C  1291               	bcf	17,5	;volatile
  4114                           
  4115                           ;mainFileRgbNewframeFormate.c: 206: }
  4116                           ;mainFileRgbNewframeFormate.c: 207: }
  4117  006D  288A               	goto	i1l199
  4118  006E                     i1l194:	
  4119                           
  4120                           ;mainFileRgbNewframeFormate.c: 208: else{
  4121                           ;mainFileRgbNewframeFormate.c: 209: RC1STAbits.CREN = 0;
  4122  006E  0023               	movlb	3	; select bank3
  4123  006F  121D               	bcf	29,4	;volatile
  4124                           
  4125                           ;mainFileRgbNewframeFormate.c: 210: RC1STAbits.CREN = 1;
  4126  0070  161D               	bsf	29,4	;volatile
  4127                           
  4128                           ;mainFileRgbNewframeFormate.c: 211: mainReceivedDataPosition=0;
  4129  0071  01F0               	clrf	_mainReceivedDataPosition
  4130  0072  01F1               	clrf	_mainReceivedDataPosition+1
  4131                           
  4132                           ;mainFileRgbNewframeFormate.c: 213: ErrorNames[0]='E'; ErrorNames[1]='R'; ErrorNames[2]=
      +                          'R'; ErrorNames[3]='X';
  4133  0073  3045               	movlw	69
  4134  0074  00FA               	movwf	??_isr
  4135  0075  087A               	movf	??_isr,w
  4136  0076  0021               	movlb	1	; select bank1
  4137  0077  00CC               	movwf	_ErrorNames^(0+128)
  4138  0078  3052               	movlw	82
  4139  0079  00FA               	movwf	??_isr
  4140  007A  087A               	movf	??_isr,w
  4141  007B  00CD               	movwf	(_ErrorNames^(0+128)+1)
  4142  007C  3052               	movlw	82
  4143  007D  00FA               	movwf	??_isr
  4144  007E  087A               	movf	??_isr,w
  4145  007F  00CE               	movwf	(_ErrorNames^(0+128)+2)
  4146  0080  3058               	movlw	88
  4147  0081  00FA               	movwf	??_isr
  4148  0082  087A               	movf	??_isr,w
  4149  0083  00CF               	movwf	(_ErrorNames^(0+128)+3)
  4150                           
  4151                           ;mainFileRgbNewframeFormate.c: 214: errorsISR(ErrorNames);
  4152  0084  30CC               	movlw	low _ErrorNames
  4153  0085  00F6               	movwf	errorsISR@errNum
  4154  0086  3000               	movlw	high _ErrorNames
  4155  0087  00F7               	movwf	errorsISR@errNum+1
  4156  0088  3187  27B6         	fcall	_errorsISR
  4157  008A                     i1l199:	
  4158  008A  087B               	movf	??_isr+1,w
  4159  008B  0020               	movlb	0	; select bank0
  4160  008C  00FF               	movwf	127
  4161  008D  107E               	bcf	126,0	;clear compiler interrupt flag (level 1)
  4162  008E  0009               	retfie
  4163  008F                     __end_of_isr:	
  4164                           
  4165                           	psect	text15
  4166  07B6                     __ptext15:	
  4167 ;; *************** function _errorsISR *****************
  4168 ;; Defined at:
  4169 ;;		line 534 in file "mainFileRgbNewframeFormate.c"
  4170 ;; Parameters:    Size  Location     Type
  4171 ;;  errNum          2    0[COMMON] PTR unsigned char 
  4172 ;;		 -> STR_15(4), ErrorNames(5), 
  4173 ;; Auto vars:     Size  Location     Type
  4174 ;;  Tx_count        2    2[COMMON] int 
  4175 ;; Return value:  Size  Location     Type
  4176 ;;                  1    wreg      void 
  4177 ;; Registers used:
  4178 ;;		wreg, fsr0l, fsr0h, status,2, status,0, pclath
  4179 ;; Tracked objects:
  4180 ;;		On entry : 0/0
  4181 ;;		On exit  : 0/0
  4182 ;;		Unchanged: 0/0
  4183 ;; Data sizes:     COMMON   BANK0   BANK1   BANK2   BANK3   BANK4   BANK5   BANK6   BANK7   BANK8   BANK9
  4184 ;;      Params:         2       0       0       0       0       0       0       0       0       0       0
  4185 ;;      Locals:         2       0       0       0       0       0       0       0       0       0       0
  4186 ;;      Temps:          0       0       0       0       0       0       0       0       0       0       0
  4187 ;;      Totals:         4       0       0       0       0       0       0       0       0       0       0
  4188 ;;Total ram usage:        4 bytes
  4189 ;; Hardware stack levels used:    1
  4190 ;; This function calls:
  4191 ;;		Nothing
  4192 ;; This function is called by:
  4193 ;;		_isr
  4194 ;; This function uses a non-reentrant model
  4195 ;;
  4196                           
  4197                           
  4198                           ;psect for function _errorsISR
  4199  07B6                     _errorsISR:	
  4200                           
  4201                           ;mainFileRgbNewframeFormate.c: 535: int Tx_count=0;
  4202                           
  4203                           ;incstack = 0
  4204                           ; Regs used in _errorsISR: [wreg-fsr0h+status,2+status,0+pclath]
  4205  07B6  01F8               	clrf	errorsISR@Tx_count
  4206  07B7  01F9               	clrf	errorsISR@Tx_count+1
  4207  07B8                     i1l1599:	
  4208                           ;mainFileRgbNewframeFormate.c: 536: while(Tx_count!=4)
  4209                           
  4210  07B8  3004               	movlw	4
  4211  07B9  0678               	xorwf	errorsISR@Tx_count,w
  4212  07BA  0479               	iorwf	errorsISR@Tx_count+1,w
  4213  07BB  1903               	btfsc	3,2
  4214  07BC  0008               	return
  4215  07BD                     i1l242:	
  4216                           ;mainFileRgbNewframeFormate.c: 537: {
  4217                           ;mainFileRgbNewframeFormate.c: 538: while (!TX1STAbits.TRMT);
  4218                           
  4219  07BD  0023               	movlb	3	; select bank3
  4220  07BE  1C9E               	btfss	30,1	;volatile
  4221  07BF  2FBD               	goto	i1l242
  4222                           
  4223                           ;mainFileRgbNewframeFormate.c: 539: TX1REG = *errNum;
  4224  07C0  0876               	movf	errorsISR@errNum,w
  4225  07C1  0084               	movwf	4
  4226  07C2  0877               	movf	errorsISR@errNum+1,w
  4227  07C3  0085               	movwf	5
  4228  07C4  0800               	movf	0,w	;code access
  4229  07C5  009A               	movwf	26	;volatile
  4230                           
  4231                           ;mainFileRgbNewframeFormate.c: 540: *errNum++;
  4232  07C6  3001               	movlw	1
  4233  07C7  07F6               	addwf	errorsISR@errNum,f
  4234  07C8  3000               	movlw	0
  4235  07C9  3DF7               	addwfc	errorsISR@errNum+1,f
  4236                           
  4237                           ;mainFileRgbNewframeFormate.c: 541: Tx_count++;
  4238  07CA  3001               	movlw	1
  4239  07CB  07F8               	addwf	errorsISR@Tx_count,f
  4240  07CC  3000               	movlw	0
  4241  07CD  3DF9               	addwfc	errorsISR@Tx_count+1,f
  4242  07CE  2FB8               	goto	i1l1599
  4243  07CF                     __end_of_errorsISR:	
  4244  007E                     btemp	set	126	;btemp
  4245  007E                     int$flags	set	126
  4246  007E                     wtemp0	set	126


Data Sizes:
    Strings     245
    Constant    0
    Data        86
    BSS         77
    Persistent  0
    Stack       0

Auto Spaces:
    Space          Size  Autos    Used
    COMMON           14      6      12
    BANK0            80     50      78
    BANK1            80      4      69
    BANK2            80      0      64
    BANK3            80      0       0
    BANK4            80      0       0
    BANK5            80      0       0
    BANK6            80      0       0
    BANK7            80      0       0
    BANK8            80      0       0
    BANK9            32      0       0

Pointer List with Targets:

    applicationControl@AcknowledgementString	PTR unsigned char  size(1) Largest target is 0
		 -> NULL(NULL[0]), 

    StoreModuleName	PTR unsigned char  size(1) Largest target is 0
		 -> NULL(NULL[0]), 

    token	PTR unsigned char  size(1) Largest target is 0
		 -> NULL(NULL[0]), 

    ModuleName	PTR unsigned char  size(1) Largest target is 0
		 -> NULL(NULL[0]), 

    ConvertmaindataReceiveIntoString	PTR unsigned char  size(1) Largest target is 0
		 -> NULL(NULL[0]), 

    strcpy@from	PTR const unsigned char  size(1) Largest target is 3
		 -> ModuleNameBuffer(BANK1[3]), 

    strcpy@to	PTR unsigned char  size(1) Largest target is 46
		 -> sendFinalBufferToGAteway(BANK2[46]), 

    strcpy@cp	PTR unsigned char  size(1) Largest target is 46
		 -> sendFinalBufferToGAteway(BANK2[46]), 

    strcat@from	PTR const unsigned char  size(2) Largest target is 7
		 -> STR_12(CODE[2]), STR_11(CODE[2]), FinalFramebitBuffer(BANK0[1]), STR_10(CODE[2]), 
		 -> ChildLockBuffer(BANK0[1]), STR_9(CODE[2]), BlueColorIntensityBuffer(BANK1[3]), STR_8(CODE[2]), 
		 -> GreenColorIntensityBuffer(BANK1[3]), STR_7(CODE[2]), RedColorIntensityBuffer(BANK1[3]), STR_6(CODE[2]), 
		 -> SwitchStatusBuffer(BANK0[1]), STR_5(CODE[2]), STR_4(CODE[7]), STR_3(CODE[2]), 
		 -> SwitchNumberBuffer(BANK0[2]), STR_2(CODE[2]), 

    strcat@to	PTR unsigned char  size(1) Largest target is 46
		 -> sendFinalBufferToGAteway(BANK2[46]), 

    strcat@cp	PTR unsigned char  size(1) Largest target is 46
		 -> sendFinalBufferToGAteway(BANK2[46]), 

    atoi@s	PTR const unsigned char  size(1) Largest target is 0
		 -> NULL(NULL[0]), 

    sendAcknowledgment@currentStateBuffer	PTR unsigned char  size(2) Largest target is 46
		 -> STR_25(CODE[27]), STR_24(CODE[27]), STR_23(CODE[27]), STR_22(CODE[27]), 
		 -> STR_21(CODE[27]), STR_20(CODE[27]), STR_19(CODE[27]), STR_18(CODE[27]), 
		 -> STR_14(CODE[3]), STR_13(CODE[4]), sendFinalBufferToGAteway(BANK2[46]), STR_1(CODE[4]), 

    errorsMain@errNum	PTR unsigned char  size(2) Largest target is 5
		 -> STR_17(CODE[5]), STR_16(CODE[3]), 

    errorsISR@errNum	PTR unsigned char  size(2) Largest target is 5
		 -> STR_15(CODE[4]), ErrorNames(BANK1[5]), 

    FinalframebitString	PTR unsigned char  size(1) Largest target is 0
		 -> NULL(NULL[0]), 

    ChildLockString	PTR unsigned char  size(1) Largest target is 0
		 -> NULL(NULL[0]), 

    BlueColorIntensityString	PTR unsigned char  size(1) Largest target is 0
		 -> NULL(NULL[0]), 

    GreenColorIntensityString	PTR unsigned char  size(1) Largest target is 0
		 -> NULL(NULL[0]), 

    RedColorIntensityString	PTR unsigned char  size(1) Largest target is 0
		 -> NULL(NULL[0]), 

    SwitchStatusString	PTR unsigned char  size(1) Largest target is 0
		 -> NULL(NULL[0]), 

    AcknowledgementString	PTR unsigned char  size(1) Largest target is 0
		 -> NULL(NULL[0]), 

    SwitchNumberString	PTR unsigned char  size(1) Largest target is 0
		 -> NULL(NULL[0]), 

    ModuleNameString	PTR unsigned char  size(1) Largest target is 0
		 -> NULL(NULL[0]), 

    applicationControl@FinalframebitString	PTR unsigned char  size(1) Largest target is 0
		 -> NULL(NULL[0]), 

    applicationControl@ChildLockString	PTR unsigned char  size(1) Largest target is 0
		 -> NULL(NULL[0]), 

    applicationControl@BlueColorIntensityString	PTR unsigned char  size(1) Largest target is 0
		 -> NULL(NULL[0]), 

    applicationControl@GreenColorIntensityString	PTR unsigned char  size(1) Largest target is 0
		 -> NULL(NULL[0]), 

    applicationControl@RedColorIntensityString	PTR unsigned char  size(1) Largest target is 0
		 -> NULL(NULL[0]), 

    applicationControl@SwitchStatusString	PTR unsigned char  size(1) Largest target is 0
		 -> NULL(NULL[0]), 

    applicationControl@SwitchNumberString	PTR unsigned char  size(1) Largest target is 0
		 -> NULL(NULL[0]), 

    sp__strcat	PTR unsigned char  size(1) Largest target is 46
		 -> sendFinalBufferToGAteway(BANK2[46]), 

    sp__strcpy	PTR unsigned char  size(1) Largest target is 46
		 -> sendFinalBufferToGAteway(BANK2[46]), 

    applicationControl@ModuleNameString	PTR unsigned char  size(1) Largest target is 0
		 -> NULL(NULL[0]), 


Critical Paths under _main in COMMON

    None.

Critical Paths under _isr in COMMON

    _isr->_errorsISR

Critical Paths under _main in BANK0

    _main->_applicationControl
    _applicationControl->_atoi
    _atoi->___wmul

Critical Paths under _isr in BANK0

    None.

Critical Paths under _main in BANK1

    None.

Critical Paths under _isr in BANK1

    None.

Critical Paths under _main in BANK2

    None.

Critical Paths under _isr in BANK2

    None.

Critical Paths under _main in BANK3

    None.

Critical Paths under _isr in BANK3

    None.

Critical Paths under _main in BANK4

    None.

Critical Paths under _isr in BANK4

    None.

Critical Paths under _main in BANK5

    None.

Critical Paths under _isr in BANK5

    None.

Critical Paths under _main in BANK6

    None.

Critical Paths under _isr in BANK6

    None.

Critical Paths under _main in BANK7

    None.

Critical Paths under _isr in BANK7

    None.

Critical Paths under _main in BANK8

    None.

Critical Paths under _isr in BANK8

    None.

Critical Paths under _main in BANK9

    None.

Critical Paths under _isr in BANK9

    None.

Call Graph Tables:

 ---------------------------------------------------------------------------------
 (Depth) Function   	        Calls       Base Space   Used Autos Params    Refs
 ---------------------------------------------------------------------------------
 (0) _main                                                12    12      0    8306
                                             42 BANK0      8     8      0
                                              0 BANK1      4     4      0
                _GPIO_pin_Initialize
                  _allPeripheralInit
                 _applicationControl
                         _errorsMain
                 _sendAcknowledgment
 ---------------------------------------------------------------------------------
 (1) _errorsMain                                           4     2      2     225
                                              0 BANK0      4     2      2
 ---------------------------------------------------------------------------------
 (1) _applicationControl                                  28    20      8    6712
                                             14 BANK0     28    20      8
                               _atoi
                 _sendAcknowledgment
                             _strcat
                             _strcpy
 ---------------------------------------------------------------------------------
 (2) _strcpy                                               4     3      1     219
                                              0 BANK0      4     3      1
 ---------------------------------------------------------------------------------
 (2) _strcat                                               5     3      2    2123
                                              0 BANK0      5     3      2
 ---------------------------------------------------------------------------------
 (1) _sendAcknowledgment                                   4     2      2     995
                                              0 BANK0      4     2      2
 ---------------------------------------------------------------------------------
 (2) _atoi                                                 8     6      2    1017
                                              6 BANK0      8     6      2
                             ___wmul
                            _isdigit
 ---------------------------------------------------------------------------------
 (3) _isdigit                                              2     2      0      99
                                              0 BANK0      2     2      0
 ---------------------------------------------------------------------------------
 (3) ___wmul                                               6     2      4     290
                                              0 BANK0      6     2      4
 ---------------------------------------------------------------------------------
 (1) _allPeripheralInit                                    0     0      0       0
                  _EUSART_Initialize
 ---------------------------------------------------------------------------------
 (2) _EUSART_Initialize                                    0     0      0       0
 ---------------------------------------------------------------------------------
 (1) _GPIO_pin_Initialize                                  0     0      0       0
                      _clearAllPorts
                      _pinINIT_extra
 ---------------------------------------------------------------------------------
 (2) _pinINIT_extra                                        0     0      0       0
 ---------------------------------------------------------------------------------
 (2) _clearAllPorts                                        0     0      0       0
 ---------------------------------------------------------------------------------
 Estimated maximum stack depth 3
 ---------------------------------------------------------------------------------
 (Depth) Function   	        Calls       Base Space   Used Autos Params    Refs
 ---------------------------------------------------------------------------------
 (4) _isr                                                  2     2      0     239
                                              4 COMMON     2     2      0
                          _errorsISR
 ---------------------------------------------------------------------------------
 (5) _errorsISR                                            4     2      2     239
                                              0 COMMON     4     2      2
 ---------------------------------------------------------------------------------
 Estimated maximum stack depth 5
 ---------------------------------------------------------------------------------

 Call Graph Graphs:

 _main (ROOT)
   _GPIO_pin_Initialize
     _clearAllPorts
     _pinINIT_extra
   _allPeripheralInit
     _EUSART_Initialize
   _applicationControl
     _atoi
       ___wmul
       _isdigit
     _sendAcknowledgment
     _strcat
     _strcpy
   _errorsMain
   _sendAcknowledgment

 _isr (ROOT)
   _errorsISR

 Address spaces:
Name               Size   Autos  Total    Cost      Usage
BIGRAM             2F0      0       0       0        0.0%
NULL                 0      0       0       0        0.0%
CODE                 0      0       0       0        0.0%
BITCOMMON            E      0       0       1        0.0%
BITSFR0              0      0       0       1        0.0%
SFR0                 0      0       0       1        0.0%
COMMON               E      6       C       2       85.7%
BITSFR1              0      0       0       2        0.0%
SFR1                 0      0       0       2        0.0%
BITSFR2              0      0       0       3        0.0%
SFR2                 0      0       0       3        0.0%
STACK                0      0       0       3        0.0%
BITSFR3              0      0       0       4        0.0%
SFR3                 0      0       0       4        0.0%
ABS                  0      0      DF       4        0.0%
BITBANK0            50      0       0       5        0.0%
BITSFR4              0      0       0       5        0.0%
SFR4                 0      0       0       5        0.0%
BANK0               50     32      4E       6       97.5%
BITSFR5              0      0       0       6        0.0%
SFR5                 0      0       0       6        0.0%
BITBANK1            50      0       0       7        0.0%
BITSFR6              0      0       0       7        0.0%
SFR6                 0      0       0       7        0.0%
BANK1               50      4      45       8       86.3%
BITSFR7              0      0       0       8        0.0%
SFR7                 0      0       0       8        0.0%
BITBANK2            50      0       0       9        0.0%
BITSFR8              0      0       0       9        0.0%
SFR8                 0      0       0       9        0.0%
BANK2               50      0      40      10       80.0%
BITSFR9              0      0       0      10        0.0%
SFR9                 0      0       0      10        0.0%
BITBANK3            50      0       0      11        0.0%
BITSFR10             0      0       0      11        0.0%
SFR10                0      0       0      11        0.0%
BANK3               50      0       0      12        0.0%
BITSFR11             0      0       0      12        0.0%
SFR11                0      0       0      12        0.0%
BITBANK4            50      0       0      13        0.0%
BITSFR12             0      0       0      13        0.0%
SFR12                0      0       0      13        0.0%
BANK4               50      0       0      14        0.0%
BITSFR13             0      0       0      14        0.0%
SFR13                0      0       0      14        0.0%
BITBANK5            50      0       0      15        0.0%
BITSFR14             0      0       0      15        0.0%
SFR14                0      0       0      15        0.0%
BANK5               50      0       0      16        0.0%
BITSFR15             0      0       0      16        0.0%
SFR15                0      0       0      16        0.0%
BITBANK6            50      0       0      17        0.0%
BITSFR16             0      0       0      17        0.0%
SFR16                0      0       0      17        0.0%
BANK6               50      0       0      18        0.0%
BITSFR17             0      0       0      18        0.0%
SFR17                0      0       0      18        0.0%
BITBANK7            50      0       0      19        0.0%
BITSFR18             0      0       0      19        0.0%
SFR18                0      0       0      19        0.0%
BANK7               50      0       0      20        0.0%
BITSFR19             0      0       0      20        0.0%
SFR19                0      0       0      20        0.0%
BITBANK8            50      0       0      21        0.0%
BITSFR20             0      0       0      21        0.0%
SFR20                0      0       0      21        0.0%
BANK8               50      0       0      22        0.0%
BITSFR21             0      0       0      22        0.0%
SFR21                0      0       0      22        0.0%
BITBANK9            20      0       0      23        0.0%
BITSFR22             0      0       0      23        0.0%
SFR22                0      0       0      23        0.0%
BANK9               20      0       0      24        0.0%
BITSFR23             0      0       0      24        0.0%
SFR23                0      0       0      24        0.0%
BITSFR24             0      0       0      25        0.0%
SFR24                0      0       0      25        0.0%
DATA                 0      0      DF      25        0.0%
BITSFR25             0      0       0      26        0.0%
SFR25                0      0       0      26        0.0%
BITSFR26             0      0       0      27        0.0%
SFR26                0      0       0      27        0.0%
BITSFR27             0      0       0      28        0.0%
SFR27                0      0       0      28        0.0%
BITSFR28             0      0       0      29        0.0%
SFR28                0      0       0      29        0.0%
BITSFR29             0      0       0      30        0.0%
SFR29                0      0       0      30        0.0%
BITSFR30             0      0       0      31        0.0%
SFR30                0      0       0      31        0.0%
BITSFR31             0      0       0      32        0.0%
SFR31                0      0       0      32        0.0%


Microchip Technology PIC Macro Assembler V1.45 build -152302408 
Symbol Table                                                                                   Fri Dec 14 11:31:55 2018

                  __size_of_allPeripheralInit 0003                                   __CFG_CP$OFF 0000  
                                          _M1 005C                                            _M2 005A  
                                          _M3 0058                                            _M4 0056  
                                          _M5 0054                           ___wmul@multiplicand 0022  
             applicationControl@charchildLock 0042                                           l209 047D  
                                         l251 0675                                           l260 0692  
                                         l274 06B0                                           l187 03C0  
                                         _GIE 005F                              _ModuleNameBuffer 00DA  
                                         _isr 0004                                  __CFG_BORV$LO 0000  
                                         wreg 0009                                  __CFG_FOSC$HS 0000  
                            _ModuleNameString 0066                                  __CFG_LVP$OFF 0000  
                                        l2011 0121                                          l2003 0102  
                                        l2101 0276                                          l2021 0143  
                                        l2111 0298                                          l2029 0162  
                                        l2119 02B7                                          l2047 01B5  
                                        l2039 0196                                          l2137 02F8  
                                        l2129 02D9                                          l2065 01F6  
                                        l2057 01D7                                          l2401 0596  
                                        l2321 04E6                                          l2305 04C4  
                                        l2233 03EE                                          l2083 0237  
                                        l2075 0218                                          l2219 0670  
                                        l2173 0397                                          l2181 03AC  
                                        l2093 0259                                          l2341 0510  
                                        l2325 04EE                                          l2309 04CA  
                                        l2175 039F                                          l2425 03B2  
                                        l2177 03A6                                          l2169 0388  
                                        l2353 052C                                          l2337 050A  
                                        l2257 0444                                          l2275 0480  
                                        l2373 0556                                          l2357 0534  
                                        l2293 04A8                                          l2269 045F  
                                        l1903 0FD7                                          l1921 07A1  
                                        l2385 0572                                          l2369 0550  
                                        l2289 04A0                                          l1915 068D  
                                        l1941 05AB                                          l1933 065F  
                                        l2389 057A                                          l1927 064B  
                                        l1937 05A6                                          l1929 0657  
                                        l1883 06AA                                          l1955 05C8  
                                        l1939 059F                                          l1965 0603  
                                        l1957 05CC                                          l1949 05C1  
                                        l1959 05F3                                          ?_isr 0076  
                                        STR_1 100C                                          STR_2 101B  
                                        STR_3 101B                                          STR_4 1000  
                                        STR_5 101B                                          STR_6 101B  
                                        STR_7 101B                                          STR_8 101B  
                                        STR_9 101B                                          u2005 0257  
                                        u2015 0274                                          u2025 0296  
                                        u2035 02B5                                          u2045 02D7  
                                        u2055 02F6                                          u2185 045D  
                                        u2195 047B                                          u2527 03C7  
      applicationControl@IntegerFinalframebit 0040                                          u1745 06B1  
                                        u1905 0100                                          u1755 06B6  
                                        u1915 011F                                          u1925 0141  
                                        u1935 0160                                          u1945 0194  
                                        u1955 01B3                                          _PEIE 005E  
                                        u1965 01D5                                          u1975 01F4  
                                        u1985 0216                                          u1995 0235  
                                        _WPUB 020D                                          _WPUD 020F  
                                        _WPUE 0210                                          _WPUG 048D  
                                __CFG_WRT$OFF 0000                                          _atoi 059D  
                                        _main 03C1                                          fsr0h 0005  
                                        fsr1h 0007                                          indf0 0000  
                                        fsr0l 0004                                          indf1 0001  
                                        fsr1l 0006                                          btemp 007E  
                          _applicationControl 00D3                                          start 008F  
                               __CFG_IESO$OFF 0000                        __size_of_pinINIT_extra 0015  
                         ?_applicationControl 002E                                         ??_isr 007A  
                                       ?_atoi 0026                                         ?_main 0076  
                                       STR_10 101B                                         STR_11 101B  
                                       STR_12 06DC                                         STR_20 0780  
                                       STR_13 1014                                         STR_21 06DE  
                                       STR_14 1018                                         STR_22 06F9  
                                       STR_15 1010                                         STR_23 074A  
                                       STR_16 1018                                         STR_24 0714  
                                       STR_17 1007                                         STR_25 0765  
                               __CFG_WDTE$OFF 0000                                         STR_18 06C3  
                                       STR_19 072F                                         _RC1IF 008D  
                                       i1l242 07BD                                         i1l194 006E  
                                       i1l199 008A                                __CFG_FCMEN$OFF 0000  
                        ??_applicationControl 0036                               __end_of_isdigit 0FD9  
                                       atoi@a 002B                                         atoi@s 002D  
                                       _token 0073                                __CFG_BOREN$OFF 0000  
                                       status 0003                                         wtemp0 007E  
       applicationControl@FinalframebitString 0035                         __end_of_clearAllPorts 0FC3  
                         _GPIO_pin_Initialize 07E5             applicationControl@charSwitchState 003D  
                              __CFG_MCLRE$OFF 0000                               __initialization 0091  
                                __end_of_atoi 0608                                  __end_of_main 059D  
                                  _ErrorNames 00CC                                __CFG_LPBOR$OFF 0000  
                                      ??_atoi 0028                                        ??_main 004A  
                    _BlueColorIntensityBuffer 00D1                          ?_GPIO_pin_Initialize 0076  
                               _pinINIT_extra 0FEB                      _BlueColorIntensityString 0060  
                                  _ModuleName 0074                                        _ANSELA 018C  
                                      _ANSELB 018D                                        _ANSELD 018F  
                                      _ANSELE 0190                                        _ANSELF 040C  
                                      _ANSELG 040D                                        _RC1REG 0199  
                                      _RC1STA 019D                                        i1l1645 0028  
                                      i1l1655 004E                                        i1l1599 07B8  
                                      u129_25 005B                                        _TX1REG 019A  
                                      _TX1STA 019E                                __CFG_PWRTE$OFF 0000  
                 __size_of_sendAcknowledgment 001D                           _FinalFramebitBuffer 006B  
                                      ___wmul 06A7                                        _strcat 0645  
                                      _strcpy 079B                         ??_GPIO_pin_Initialize 0020  
                    _mainReceivedDataPosition 0070                                     ??_isdigit 0020  
                              ?_pinINIT_extra 0076                       __end_of__initialization 00CF  
      applicationControl@IntergerSwitchStatus 0046                                __pcstackCOMMON 0076  
                                __pidataBANK0 0FC3                                  __pidataBANK1 0608  
                                __pidataBANK2 0FD9                               _StoreModuleName 0072  
                                  __pbssBANK0 0052                                    __pbssBANK1 00DD  
                                  __pbssBANK2 0120                        _copyparentalLockBuffer 00C2  
                             __CFG_VCAPEN$OFF 0000                            __size_of_errorsISR 0019  
                                  __pmaintext 03C1            applicationControl@IntegerChildLock 003E  
                                     ?___wmul 0020                                    __pintentry 0004  
                  sendAcknowledgment@Tx_count 0022                               ??_pinINIT_extra 0020  
                                     ?_strcat 0020                                       ?_strcpy 0020  
                                     _SP1BRGH 019C                                       _SP1BRGL 019B  
        applicationControl@SwitchNumberString 002E                               __size_of___wmul 001C  
                    _sendFinalBufferToGAteway 0120                               __CFG_STVREN$OFF 0000  
                  _copymainReceivedDataBuffer 00A0                                    _errorsMain 066D  
                                     __ptext1 066D                                       __ptext2 00D3  
                                     __ptext3 079B                                       __ptext4 0645  
                                     __ptext5 068A                                       __ptext6 059D  
                                     __ptext7 0FCA                                       __ptext8 06A7  
                                     __ptext9 0FB3                               __size_of_strcat 0028  
                             __size_of_strcpy 001B                                       _isdigit 0FCA  
                                __size_of_isr 008B                             __end_of_errorsISR 07CF  
                     _RedColorIntensityBuffer 00D7          sendAcknowledgment@currentStateBuffer 0020  
                                     main@man 00E3                                       clrloop0 0FB7  
                 __size_of_applicationControl 02EE                          end_of_initialization 00CF  
                     _RedColorIntensityString 0062                                       init_ram 07FA  
                                     initloop 07FB                             _EUSART_Initialize 07CF  
                           _levelofDimmer_LSB 0067                             _levelofDimmer_MSB 0068  
                          ?_EUSART_Initialize 0076                           ??_EUSART_Initialize 0020  
                                   _PORTAbits 000C                                     _PORTFbits 028C  
                                   _TRISAbits 008C                        __size_of_clearAllPorts 0007  
                                   _TRISCbits 008E                                     _TRISFbits 030C  
                         applicationControl@i 0048                     __end_of_EUSART_Initialize 07E5  
                  __end_of_sendAcknowledgment 06A7          applicationControl@SwitchStatusString 0030  
                 __end_of_GPIO_pin_Initialize 07FA                                __end_of___wmul 06C3  
                      _mainReceivedDataBuffer 014E                           _FinalframebitString 005E  
                                 ?_errorsMain 0020   applicationControl@IntergerRedColorIntensity 0037  
                              __end_of_strcat 066D                                __end_of_strcpy 07B6  
                         start_initialization 0091                            _SwitchNumberBuffer 0069  
                                 __end_of_isr 008F                            _SwitchNumberString 0065  
                       _AcknowledgementBuffer 00BC                         _AcknowledgementString 0064  
                   _GreenColorIntensityBuffer 00D4                                 _clearAllPorts 0FBC  
                                    ??___wmul 0024                     _GreenColorIntensityString 0061  
                                 __pdataBANK0 0067                                   __pdataBANK1 00A0  
                                 __pdataBANK2 014E                                      ??_strcat 0022  
                                    ??_strcpy 0021                              _mainDataReceived 0052  
                                 __pbssCOMMON 0070                                     ___latbits 0002  
                               __pcstackBANK0 0020                                 __pcstackBANK1 00E1  
                           errorsISR@Tx_count 0078                    __size_of_EUSART_Initialize 0016  
                          errorsMain@Tx_count 0022                           __size_of_errorsMain 001D  
                              ?_clearAllPorts 0076       applicationControl@AcknowledgementString 002F  
                             errorsISR@errNum 0076                              errorsMain@errNum 0020  
                             _ChildLockBuffer 006C            applicationControl@ModuleNameString 0043  
                             _ChildLockString 005F                                      _BAUD1CON 019F  
                       __end_of_pinINIT_extra 1000                                      ?_isdigit 0076  
                                   _errorsISR 07B6             applicationControl@ChildLockString 0034  
                              ___wmul@product 0024                                     clear_ram0 0FB6  
                                    _PIE1bits 0091     applicationControl@RedColorIntensityString 0031  
 applicationControl@GreenColorIntensityString 0032    applicationControl@BlueColorIntensityString 0033  
                          _SwitchStatusBuffer 006D                            _SwitchStatusString 0063  
                           ___wmul@multiplier 0020                    __end_of_applicationControl 03C1  
                                  ?_errorsISR 0076                               ??_clearAllPorts 0020  
            _start_PWM_Generation_in_ISR_FLAG 00DD                             _allPeripheralInit 0FB3  
                                ??_errorsMain 0022                            _sendAcknowledgment 068A  
                                 _isdigit$591 0020                            ?_allPeripheralInit 0076  
                                  strcat@from 0020                              __size_of_isdigit 000F  
applicationControl@IntegerGreenColorIntensity 0039                           ?_sendAcknowledgment 0020  
                                    __ptext10 07CF                                      __ptext11 07E5  
                                    __ptext12 0FEB                                      __ptext13 0FBC  
                                    __ptext15 07B6                           ??_allPeripheralInit 0020  
                                  strcpy@from 0020                         main@dataBufferCounter 00E1  
                                 _partCounter 00DF                                 __size_of_atoi 006B  
                               __size_of_main 01DC                            __end_of_errorsMain 068A  
                                  _RC1STAbits 019D                          ??_sendAcknowledgment 0022  
                   __end_of_allPeripheralInit 0FB6                                      int$flags 007E  
                                    atoi@sign 002A                        _tempReceivedDataBuffer 00B2  
                __size_of_GPIO_pin_Initialize 0015                                __pstringtext10 1007  
                              __pstringtext11 100C                                __pstringtext12 1010  
                              __pstringtext13 1014                                __pstringtext14 1018  
                              __pstringtext15 101B                                __pstringtext16 0000  
                                    isdigit@c 0021                                   ??_errorsISR 0078  
       applicationControl@IntegerSwitchNumber 0044                                      intlevel1 0000  
                           __CFG_CLKOUTEN$OFF 0000                            _parentalLockBuffer 00C7  
                               __pstringtext1 06C3                                 __pstringtext2 06DE  
                               __pstringtext3 06F9                                 __pstringtext4 0714  
                               __pstringtext5 072F                                 __pstringtext6 074A  
                               __pstringtext7 0765                                 __pstringtext8 0780  
                               __pstringtext9 1000                                      strcat@cp 0023  
                                    strcat@to 0024                                      strcpy@cp 0023  
                                    strcpy@to 0022                                    _TX1STAbits 019E  
            _ConvertmaindataReceiveIntoString 0075   applicationControl@IntegerBlueColorIntensity 003B  
